ARM GAS  /tmp/ccPuPmgI.s 			page 1


   1              		.cpu cortex-m4
   2              		.arch armv7e-m
   3              		.fpu fpv4-sp-d16
   4              		.eabi_attribute 27, 1
   5              		.eabi_attribute 28, 1
   6              		.eabi_attribute 20, 1
   7              		.eabi_attribute 21, 1
   8              		.eabi_attribute 23, 3
   9              		.eabi_attribute 24, 1
  10              		.eabi_attribute 25, 1
  11              		.eabi_attribute 26, 1
  12              		.eabi_attribute 30, 1
  13              		.eabi_attribute 34, 1
  14              		.eabi_attribute 18, 4
  15              		.file	"com.c"
  16              		.text
  17              	.Ltext0:
  18              		.cfi_sections	.debug_frame
  19              		.file 1 "Core/Src/BLT/com.c"
  20              		.section	.text.ComInit,"ax",%progbits
  21              		.align	1
  22              		.global	ComInit
  23              		.syntax unified
  24              		.thumb
  25              		.thumb_func
  27              	ComInit:
  28              	.LFB0:
   1:Core/Src/BLT/com.c **** /************************************************************************************//**
   2:Core/Src/BLT/com.c **** * \file         Source/com.c
   3:Core/Src/BLT/com.c **** * \brief        Bootloader communication interface source file.
   4:Core/Src/BLT/com.c **** * \ingroup      Core
   5:Core/Src/BLT/com.c **** * \internal
   6:Core/Src/BLT/com.c **** *----------------------------------------------------------------------------------------
   7:Core/Src/BLT/com.c **** *                          C O P Y R I G H T
   8:Core/Src/BLT/com.c **** *----------------------------------------------------------------------------------------
   9:Core/Src/BLT/com.c **** *   Copyright (c) 2011  by Feaser    http://www.feaser.com    All rights reserved
  10:Core/Src/BLT/com.c **** *
  11:Core/Src/BLT/com.c **** *----------------------------------------------------------------------------------------
  12:Core/Src/BLT/com.c **** *                            L I C E N S E
  13:Core/Src/BLT/com.c **** *----------------------------------------------------------------------------------------
  14:Core/Src/BLT/com.c **** * This file is part of OpenBLT. OpenBLT is free software: you can redistribute it and/or
  15:Core/Src/BLT/com.c **** * modify it under the terms of the GNU General Public License as published by the Free
  16:Core/Src/BLT/com.c **** * Software Foundation, either version 3 of the License, or (at your option) any later
  17:Core/Src/BLT/com.c **** * version.
  18:Core/Src/BLT/com.c **** *
  19:Core/Src/BLT/com.c **** * OpenBLT is distributed in the hope that it will be useful, but WITHOUT ANY WARRANTY;
  20:Core/Src/BLT/com.c **** * without even the implied warranty of MERCHANTABILITY or FITNESS FOR A PARTICULAR
  21:Core/Src/BLT/com.c **** * PURPOSE. See the GNU General Public License for more details.
  22:Core/Src/BLT/com.c **** *
  23:Core/Src/BLT/com.c **** * You have received a copy of the GNU General Public License along with OpenBLT. It
  24:Core/Src/BLT/com.c **** * should be located in ".\Doc\license.html". If not, contact Feaser to obtain a copy.
  25:Core/Src/BLT/com.c **** *
  26:Core/Src/BLT/com.c **** * \endinternal
  27:Core/Src/BLT/com.c **** ****************************************************************************************/
  28:Core/Src/BLT/com.c **** 
  29:Core/Src/BLT/com.c **** /****************************************************************************************
  30:Core/Src/BLT/com.c **** * Include files
ARM GAS  /tmp/ccPuPmgI.s 			page 2


  31:Core/Src/BLT/com.c **** ****************************************************************************************/
  32:Core/Src/BLT/com.c **** #include "BLT/boot.h"                                /* bootloader generic header          */
  33:Core/Src/BLT/com.c **** #if (BOOT_COM_CAN_ENABLE > 0)
  34:Core/Src/BLT/com.c **** #include "BLT/can.h"                                 /* can driver module                  */
  35:Core/Src/BLT/com.c **** #endif
  36:Core/Src/BLT/com.c **** 
  37:Core/Src/BLT/com.c **** #if (BOOT_COM_ENABLE > 0)
  38:Core/Src/BLT/com.c **** /****************************************************************************************
  39:Core/Src/BLT/com.c **** * Local data declarations
  40:Core/Src/BLT/com.c **** ****************************************************************************************/
  41:Core/Src/BLT/com.c **** /** \brief Holds the communication interface of the currently active interface. */
  42:Core/Src/BLT/com.c **** static tComInterfaceId comActiveInterface = COM_IF_OTHER;
  43:Core/Src/BLT/com.c **** 
  44:Core/Src/BLT/com.c **** 
  45:Core/Src/BLT/com.c **** /************************************************************************************//**
  46:Core/Src/BLT/com.c **** ** \brief     Initializes the communication module including the hardware needed for
  47:Core/Src/BLT/com.c **** **            the communication.
  48:Core/Src/BLT/com.c **** ** \return    none
  49:Core/Src/BLT/com.c **** **
  50:Core/Src/BLT/com.c **** ****************************************************************************************/
  51:Core/Src/BLT/com.c **** void ComInit(void)
  52:Core/Src/BLT/com.c **** {
  29              		.loc 1 52 1 view -0
  30              		.cfi_startproc
  31              		@ args = 0, pretend = 0, frame = 0
  32              		@ frame_needed = 0, uses_anonymous_args = 0
  33 0000 08B5     		push	{r3, lr}
  34              		.cfi_def_cfa_offset 8
  35              		.cfi_offset 3, -8
  36              		.cfi_offset 14, -4
  53:Core/Src/BLT/com.c ****   /* initialize the XCP communication protocol */
  54:Core/Src/BLT/com.c ****   XcpInit();
  37              		.loc 1 54 3 view .LVU1
  38 0002 FFF7FEFF 		bl	XcpInit
  39              	.LVL0:
  55:Core/Src/BLT/com.c **** #if (BOOT_COM_CAN_ENABLE > 0)
  56:Core/Src/BLT/com.c ****   /* initialize the CAN controller */
  57:Core/Src/BLT/com.c ****   CanInit();
  40              		.loc 1 57 3 view .LVU2
  41 0006 FFF7FEFF 		bl	CanInit
  42              	.LVL1:
  58:Core/Src/BLT/com.c ****   /* set it as active */
  59:Core/Src/BLT/com.c ****   comActiveInterface = COM_IF_CAN;
  43              		.loc 1 59 3 view .LVU3
  44              		.loc 1 59 22 is_stmt 0 view .LVU4
  45 000a 024B     		ldr	r3, .L3
  46 000c 0122     		movs	r2, #1
  47 000e 1A70     		strb	r2, [r3]
  60:Core/Src/BLT/com.c **** #endif
  61:Core/Src/BLT/com.c **** } /*** end of ComInit ***/
  48              		.loc 1 61 1 view .LVU5
  49 0010 08BD     		pop	{r3, pc}
  50              	.L4:
  51 0012 00BF     		.align	2
  52              	.L3:
  53 0014 00000000 		.word	comActiveInterface
  54              		.cfi_endproc
ARM GAS  /tmp/ccPuPmgI.s 			page 3


  55              	.LFE0:
  57              		.section	.text.ComTask,"ax",%progbits
  58              		.align	1
  59              		.global	ComTask
  60              		.syntax unified
  61              		.thumb
  62              		.thumb_func
  64              	ComTask:
  65              	.LFB1:
  62:Core/Src/BLT/com.c **** 
  63:Core/Src/BLT/com.c **** 
  64:Core/Src/BLT/com.c **** /************************************************************************************//**
  65:Core/Src/BLT/com.c **** ** \brief     Updates the communication module by checking if new data was received
  66:Core/Src/BLT/com.c **** **            and submitting the request to process newly received data.
  67:Core/Src/BLT/com.c **** ** \return    none
  68:Core/Src/BLT/com.c **** **
  69:Core/Src/BLT/com.c **** ****************************************************************************************/
  70:Core/Src/BLT/com.c **** void ComTask(void)
  71:Core/Src/BLT/com.c **** {
  66              		.loc 1 71 1 is_stmt 1 view -0
  67              		.cfi_startproc
  68              		@ args = 0, pretend = 0, frame = 8
  69              		@ frame_needed = 0, uses_anonymous_args = 0
  70 0000 00B5     		push	{lr}
  71              		.cfi_def_cfa_offset 4
  72              		.cfi_offset 14, -4
  73 0002 83B0     		sub	sp, sp, #12
  74              		.cfi_def_cfa_offset 16
  72:Core/Src/BLT/com.c ****   blt_int8u xcpPacketLen;
  75              		.loc 1 72 3 view .LVU7
  73:Core/Src/BLT/com.c ****   /* make xcpCtoReqPacket static for runtime efficiency */
  74:Core/Src/BLT/com.c ****   static blt_int8u xcpCtoReqPacket[BOOT_COM_RX_MAX_DATA];
  76              		.loc 1 74 3 view .LVU8
  75:Core/Src/BLT/com.c **** 
  76:Core/Src/BLT/com.c **** #if (BOOT_COM_CAN_ENABLE > 0)
  77:Core/Src/BLT/com.c ****   if (CanReceivePacket(&xcpCtoReqPacket[0], &xcpPacketLen) == BLT_TRUE)
  77              		.loc 1 77 3 view .LVU9
  78              		.loc 1 77 7 is_stmt 0 view .LVU10
  79 0004 0DF10701 		add	r1, sp, #7
  80 0008 0848     		ldr	r0, .L9
  81 000a FFF7FEFF 		bl	CanReceivePacket
  82              	.LVL2:
  83              		.loc 1 77 6 discriminator 1 view .LVU11
  84 000e 0128     		cmp	r0, #1
  85 0010 02D0     		beq	.L8
  86              	.L5:
  78:Core/Src/BLT/com.c ****   {
  79:Core/Src/BLT/com.c ****     /* make this the active interface */
  80:Core/Src/BLT/com.c ****     comActiveInterface = COM_IF_CAN;
  81:Core/Src/BLT/com.c ****     /* process packet */
  82:Core/Src/BLT/com.c ****     XcpPacketReceived(&xcpCtoReqPacket[0], xcpPacketLen);
  83:Core/Src/BLT/com.c ****   }
  84:Core/Src/BLT/com.c **** #endif
  85:Core/Src/BLT/com.c **** } /*** end of ComTask ***/
  87              		.loc 1 85 1 view .LVU12
  88 0012 03B0     		add	sp, sp, #12
  89              		.cfi_remember_state
ARM GAS  /tmp/ccPuPmgI.s 			page 4


  90              		.cfi_def_cfa_offset 4
  91              		@ sp needed
  92 0014 5DF804FB 		ldr	pc, [sp], #4
  93              	.L8:
  94              		.cfi_restore_state
  80:Core/Src/BLT/com.c ****     /* process packet */
  95              		.loc 1 80 5 is_stmt 1 view .LVU13
  80:Core/Src/BLT/com.c ****     /* process packet */
  96              		.loc 1 80 24 is_stmt 0 view .LVU14
  97 0018 054B     		ldr	r3, .L9+4
  98 001a 0122     		movs	r2, #1
  99 001c 1A70     		strb	r2, [r3]
  82:Core/Src/BLT/com.c ****   }
 100              		.loc 1 82 5 is_stmt 1 view .LVU15
 101 001e 9DF80710 		ldrb	r1, [sp, #7]	@ zero_extendqisi2
 102 0022 0248     		ldr	r0, .L9
 103 0024 FFF7FEFF 		bl	XcpPacketReceived
 104              	.LVL3:
 105              		.loc 1 85 1 is_stmt 0 view .LVU16
 106 0028 F3E7     		b	.L5
 107              	.L10:
 108 002a 00BF     		.align	2
 109              	.L9:
 110 002c 00000000 		.word	xcpCtoReqPacket.0
 111 0030 00000000 		.word	comActiveInterface
 112              		.cfi_endproc
 113              	.LFE1:
 115              		.section	.text.ComFree,"ax",%progbits
 116              		.align	1
 117              		.global	ComFree
 118              		.syntax unified
 119              		.thumb
 120              		.thumb_func
 122              	ComFree:
 123              	.LFB2:
  86:Core/Src/BLT/com.c **** 
  87:Core/Src/BLT/com.c **** 
  88:Core/Src/BLT/com.c **** /************************************************************************************//**
  89:Core/Src/BLT/com.c **** ** \brief     Releases the communication module.
  90:Core/Src/BLT/com.c **** ** \return    none
  91:Core/Src/BLT/com.c **** **
  92:Core/Src/BLT/com.c **** ****************************************************************************************/
  93:Core/Src/BLT/com.c **** void ComFree(void)
  94:Core/Src/BLT/com.c **** {
 124              		.loc 1 94 1 is_stmt 1 view -0
 125              		.cfi_startproc
 126              		@ args = 0, pretend = 0, frame = 0
 127              		@ frame_needed = 0, uses_anonymous_args = 0
 128              		@ link register save eliminated.
  95:Core/Src/BLT/com.c **** } /*** end of ComFree ***/
 129              		.loc 1 95 1 view .LVU18
 130 0000 7047     		bx	lr
 131              		.cfi_endproc
 132              	.LFE2:
 134              		.section	.text.ComTransmitPacket,"ax",%progbits
 135              		.align	1
 136              		.global	ComTransmitPacket
ARM GAS  /tmp/ccPuPmgI.s 			page 5


 137              		.syntax unified
 138              		.thumb
 139              		.thumb_func
 141              	ComTransmitPacket:
 142              	.LVL4:
 143              	.LFB3:
  96:Core/Src/BLT/com.c **** 
  97:Core/Src/BLT/com.c **** 
  98:Core/Src/BLT/com.c **** /************************************************************************************//**
  99:Core/Src/BLT/com.c **** ** \brief     Transmits the packet using the xcp transport layer.
 100:Core/Src/BLT/com.c **** ** \param     data Pointer to the byte buffer with packet data.
 101:Core/Src/BLT/com.c **** ** \param     len  Number of data bytes that need to be transmitted.
 102:Core/Src/BLT/com.c **** ** \return    none
 103:Core/Src/BLT/com.c **** **
 104:Core/Src/BLT/com.c **** ****************************************************************************************/
 105:Core/Src/BLT/com.c **** void ComTransmitPacket(blt_int8u *data, blt_int16u len)
 106:Core/Src/BLT/com.c **** {
 144              		.loc 1 106 1 view -0
 145              		.cfi_startproc
 146              		@ args = 0, pretend = 0, frame = 0
 147              		@ frame_needed = 0, uses_anonymous_args = 0
 148              		.loc 1 106 1 is_stmt 0 view .LVU20
 149 0000 08B5     		push	{r3, lr}
 150              		.cfi_def_cfa_offset 8
 151              		.cfi_offset 3, -8
 152              		.cfi_offset 14, -4
 107:Core/Src/BLT/com.c **** #if (BOOT_COM_CAN_ENABLE > 0)
 108:Core/Src/BLT/com.c ****   /* transmit the packet. note that len is limited to 8 in the plausibility check,
 109:Core/Src/BLT/com.c ****    * so cast is okay.
 110:Core/Src/BLT/com.c ****    */
 111:Core/Src/BLT/com.c ****   if (comActiveInterface == COM_IF_CAN)
 153              		.loc 1 111 3 is_stmt 1 view .LVU21
 154              		.loc 1 111 26 is_stmt 0 view .LVU22
 155 0002 054B     		ldr	r3, .L16
 156 0004 1B78     		ldrb	r3, [r3]	@ zero_extendqisi2
 157              		.loc 1 111 6 view .LVU23
 158 0006 012B     		cmp	r3, #1
 159 0008 02D0     		beq	.L15
 160              	.LVL5:
 161              	.L13:
 112:Core/Src/BLT/com.c ****   {
 113:Core/Src/BLT/com.c ****     CanTransmitPacket(data, (blt_int8u)len);
 114:Core/Src/BLT/com.c ****   }
 115:Core/Src/BLT/com.c **** #endif
 116:Core/Src/BLT/com.c **** 
 117:Core/Src/BLT/com.c ****   /* send signal that the packet was transmitted */
 118:Core/Src/BLT/com.c ****   XcpPacketTransmitted();
 162              		.loc 1 118 3 is_stmt 1 view .LVU24
 163 000a FFF7FEFF 		bl	XcpPacketTransmitted
 164              	.LVL6:
 119:Core/Src/BLT/com.c **** } /*** end of ComTransmitPacket ***/
 165              		.loc 1 119 1 is_stmt 0 view .LVU25
 166 000e 08BD     		pop	{r3, pc}
 167              	.LVL7:
 168              	.L15:
 113:Core/Src/BLT/com.c ****   }
 169              		.loc 1 113 5 is_stmt 1 view .LVU26
ARM GAS  /tmp/ccPuPmgI.s 			page 6


 170 0010 C9B2     		uxtb	r1, r1
 171              	.LVL8:
 113:Core/Src/BLT/com.c ****   }
 172              		.loc 1 113 5 is_stmt 0 view .LVU27
 173 0012 FFF7FEFF 		bl	CanTransmitPacket
 174              	.LVL9:
 113:Core/Src/BLT/com.c ****   }
 175              		.loc 1 113 5 view .LVU28
 176 0016 F8E7     		b	.L13
 177              	.L17:
 178              		.align	2
 179              	.L16:
 180 0018 00000000 		.word	comActiveInterface
 181              		.cfi_endproc
 182              	.LFE3:
 184              		.section	.text.ComGetActiveInterfaceMaxRxLen,"ax",%progbits
 185              		.align	1
 186              		.global	ComGetActiveInterfaceMaxRxLen
 187              		.syntax unified
 188              		.thumb
 189              		.thumb_func
 191              	ComGetActiveInterfaceMaxRxLen:
 192              	.LFB4:
 120:Core/Src/BLT/com.c **** 
 121:Core/Src/BLT/com.c **** 
 122:Core/Src/BLT/com.c **** /************************************************************************************//**
 123:Core/Src/BLT/com.c **** ** \brief     Obtains the maximum number of bytes that can be received on the specified
 124:Core/Src/BLT/com.c **** **            communication interface.
 125:Core/Src/BLT/com.c **** ** \return    Maximum number of bytes that can be received.
 126:Core/Src/BLT/com.c **** **
 127:Core/Src/BLT/com.c **** ****************************************************************************************/
 128:Core/Src/BLT/com.c **** blt_int16u ComGetActiveInterfaceMaxRxLen(void)
 129:Core/Src/BLT/com.c **** {
 193              		.loc 1 129 1 is_stmt 1 view -0
 194              		.cfi_startproc
 195              		@ args = 0, pretend = 0, frame = 0
 196              		@ frame_needed = 0, uses_anonymous_args = 0
 197              		@ link register save eliminated.
 130:Core/Src/BLT/com.c ****   blt_int16u result;
 198              		.loc 1 130 3 view .LVU30
 131:Core/Src/BLT/com.c **** 
 132:Core/Src/BLT/com.c ****   /* filter on communication interface identifier */
 133:Core/Src/BLT/com.c ****   switch (comActiveInterface)
 199              		.loc 1 133 3 view .LVU31
 200 0000 074B     		ldr	r3, .L23
 201 0002 1B78     		ldrb	r3, [r3]	@ zero_extendqisi2
 202 0004 022B     		cmp	r3, #2
 203 0006 05D0     		beq	.L20
 204 0008 032B     		cmp	r3, #3
 205 000a 05D0     		beq	.L21
 206 000c 012B     		cmp	r3, #1
 207 000e 05D1     		bne	.L22
 134:Core/Src/BLT/com.c ****   {
 135:Core/Src/BLT/com.c ****     case COM_IF_RS232:
 136:Core/Src/BLT/com.c ****       result = BOOT_COM_RS232_RX_MAX_DATA;
 137:Core/Src/BLT/com.c ****       break;
 138:Core/Src/BLT/com.c **** 
ARM GAS  /tmp/ccPuPmgI.s 			page 7


 139:Core/Src/BLT/com.c ****     case COM_IF_CAN:
 140:Core/Src/BLT/com.c ****       result = BOOT_COM_CAN_RX_MAX_DATA;
 208              		.loc 1 140 14 is_stmt 0 view .LVU32
 209 0010 0820     		movs	r0, #8
 210 0012 7047     		bx	lr
 211              	.L20:
 141:Core/Src/BLT/com.c ****       break;
 142:Core/Src/BLT/com.c **** 
 143:Core/Src/BLT/com.c ****     case COM_IF_USB:
 144:Core/Src/BLT/com.c ****       result = BOOT_COM_USB_RX_MAX_DATA;
 212              		.loc 1 144 14 view .LVU33
 213 0014 3F20     		movs	r0, #63
 214 0016 7047     		bx	lr
 215              	.L21:
 145:Core/Src/BLT/com.c ****       break;
 146:Core/Src/BLT/com.c **** 
 147:Core/Src/BLT/com.c ****     case COM_IF_NET:
 148:Core/Src/BLT/com.c ****       result = BOOT_COM_NET_RX_MAX_DATA;
 216              		.loc 1 148 14 view .LVU34
 217 0018 0020     		movs	r0, #0
 218 001a 7047     		bx	lr
 219              	.L22:
 133:Core/Src/BLT/com.c ****   {
 220              		.loc 1 133 3 view .LVU35
 221 001c 4020     		movs	r0, #64
 222              	.LVL10:
 149:Core/Src/BLT/com.c ****       break;
 150:Core/Src/BLT/com.c **** 
 151:Core/Src/BLT/com.c ****     default:
 152:Core/Src/BLT/com.c ****       result = BOOT_COM_RX_MAX_DATA;
 153:Core/Src/BLT/com.c ****       break;
 154:Core/Src/BLT/com.c ****   }
 155:Core/Src/BLT/com.c **** 
 156:Core/Src/BLT/com.c ****   return result;
 223              		.loc 1 156 3 is_stmt 1 view .LVU36
 157:Core/Src/BLT/com.c **** } /*** end of ComGetActiveInterfaceMaxRxLen ***/
 224              		.loc 1 157 1 is_stmt 0 view .LVU37
 225 001e 7047     		bx	lr
 226              	.L24:
 227              		.align	2
 228              	.L23:
 229 0020 00000000 		.word	comActiveInterface
 230              		.cfi_endproc
 231              	.LFE4:
 233              		.section	.text.ComGetActiveInterfaceMaxTxLen,"ax",%progbits
 234              		.align	1
 235              		.global	ComGetActiveInterfaceMaxTxLen
 236              		.syntax unified
 237              		.thumb
 238              		.thumb_func
 240              	ComGetActiveInterfaceMaxTxLen:
 241              	.LFB5:
 158:Core/Src/BLT/com.c **** 
 159:Core/Src/BLT/com.c **** 
 160:Core/Src/BLT/com.c **** /************************************************************************************//**
 161:Core/Src/BLT/com.c **** ** \brief     Obtains the maximum number of bytes that can be transmitted on the
 162:Core/Src/BLT/com.c **** **            specified communication interface.
ARM GAS  /tmp/ccPuPmgI.s 			page 8


 163:Core/Src/BLT/com.c **** ** \return    Maximum number of bytes that can be received.
 164:Core/Src/BLT/com.c **** **
 165:Core/Src/BLT/com.c **** ****************************************************************************************/
 166:Core/Src/BLT/com.c **** blt_int16u ComGetActiveInterfaceMaxTxLen(void)
 167:Core/Src/BLT/com.c **** {
 242              		.loc 1 167 1 is_stmt 1 view -0
 243              		.cfi_startproc
 244              		@ args = 0, pretend = 0, frame = 0
 245              		@ frame_needed = 0, uses_anonymous_args = 0
 246              		@ link register save eliminated.
 168:Core/Src/BLT/com.c ****   blt_int16u result;
 247              		.loc 1 168 3 view .LVU39
 169:Core/Src/BLT/com.c **** 
 170:Core/Src/BLT/com.c ****   /* filter on communication interface identifier */
 171:Core/Src/BLT/com.c ****   switch (comActiveInterface)
 248              		.loc 1 171 3 view .LVU40
 249 0000 074B     		ldr	r3, .L30
 250 0002 1B78     		ldrb	r3, [r3]	@ zero_extendqisi2
 251 0004 022B     		cmp	r3, #2
 252 0006 05D0     		beq	.L27
 253 0008 032B     		cmp	r3, #3
 254 000a 05D0     		beq	.L28
 255 000c 012B     		cmp	r3, #1
 256 000e 05D1     		bne	.L29
 172:Core/Src/BLT/com.c ****   {
 173:Core/Src/BLT/com.c ****     case COM_IF_RS232:
 174:Core/Src/BLT/com.c ****       result = BOOT_COM_RS232_TX_MAX_DATA;
 175:Core/Src/BLT/com.c ****       break;
 176:Core/Src/BLT/com.c **** 
 177:Core/Src/BLT/com.c ****     case COM_IF_CAN:
 178:Core/Src/BLT/com.c ****       result = BOOT_COM_CAN_TX_MAX_DATA;
 257              		.loc 1 178 14 is_stmt 0 view .LVU41
 258 0010 0820     		movs	r0, #8
 259 0012 7047     		bx	lr
 260              	.L27:
 179:Core/Src/BLT/com.c ****       break;
 180:Core/Src/BLT/com.c **** 
 181:Core/Src/BLT/com.c ****     case COM_IF_USB:
 182:Core/Src/BLT/com.c ****       result = BOOT_COM_USB_TX_MAX_DATA;
 261              		.loc 1 182 14 view .LVU42
 262 0014 3F20     		movs	r0, #63
 263 0016 7047     		bx	lr
 264              	.L28:
 183:Core/Src/BLT/com.c ****       break;
 184:Core/Src/BLT/com.c **** 
 185:Core/Src/BLT/com.c ****     case COM_IF_NET:
 186:Core/Src/BLT/com.c ****       result = BOOT_COM_NET_TX_MAX_DATA;
 265              		.loc 1 186 14 view .LVU43
 266 0018 0020     		movs	r0, #0
 267 001a 7047     		bx	lr
 268              	.L29:
 171:Core/Src/BLT/com.c ****   {
 269              		.loc 1 171 3 view .LVU44
 270 001c 4020     		movs	r0, #64
 271              	.LVL11:
 187:Core/Src/BLT/com.c ****       break;
 188:Core/Src/BLT/com.c **** 
ARM GAS  /tmp/ccPuPmgI.s 			page 9


 189:Core/Src/BLT/com.c ****     default:
 190:Core/Src/BLT/com.c ****       result = BOOT_COM_TX_MAX_DATA;
 191:Core/Src/BLT/com.c ****       break;
 192:Core/Src/BLT/com.c ****   }
 193:Core/Src/BLT/com.c **** 
 194:Core/Src/BLT/com.c ****   return result;
 272              		.loc 1 194 3 is_stmt 1 view .LVU45
 195:Core/Src/BLT/com.c **** } /*** end of ComGetActiveInterfaceMaxTxLen ***/
 273              		.loc 1 195 1 is_stmt 0 view .LVU46
 274 001e 7047     		bx	lr
 275              	.L31:
 276              		.align	2
 277              	.L30:
 278 0020 00000000 		.word	comActiveInterface
 279              		.cfi_endproc
 280              	.LFE5:
 282              		.section	.text.ComIsConnected,"ax",%progbits
 283              		.align	1
 284              		.global	ComIsConnected
 285              		.syntax unified
 286              		.thumb
 287              		.thumb_func
 289              	ComIsConnected:
 290              	.LFB6:
 196:Core/Src/BLT/com.c **** 
 197:Core/Src/BLT/com.c **** 
 198:Core/Src/BLT/com.c **** /************************************************************************************//**
 199:Core/Src/BLT/com.c **** ** \brief     This function obtains the XCP connection state.
 200:Core/Src/BLT/com.c **** ** \return    BLT_TRUE when an XCP connection is established, BLT_FALSE otherwise.
 201:Core/Src/BLT/com.c **** **
 202:Core/Src/BLT/com.c **** ****************************************************************************************/
 203:Core/Src/BLT/com.c **** blt_bool ComIsConnected(void)
 204:Core/Src/BLT/com.c **** {
 291              		.loc 1 204 1 is_stmt 1 view -0
 292              		.cfi_startproc
 293              		@ args = 0, pretend = 0, frame = 0
 294              		@ frame_needed = 0, uses_anonymous_args = 0
 295 0000 08B5     		push	{r3, lr}
 296              		.cfi_def_cfa_offset 8
 297              		.cfi_offset 3, -8
 298              		.cfi_offset 14, -4
 205:Core/Src/BLT/com.c ****   blt_bool result = BLT_FALSE;
 299              		.loc 1 205 3 view .LVU48
 300              	.LVL12:
 206:Core/Src/BLT/com.c **** 
 207:Core/Src/BLT/com.c ****   /* Is there an active XCP connection? This indicates that the communication interface
 208:Core/Src/BLT/com.c ****    * is in the connection state. 
 209:Core/Src/BLT/com.c ****    */  
 210:Core/Src/BLT/com.c ****   if (XcpIsConnected())
 301              		.loc 1 210 3 view .LVU49
 302              		.loc 1 210 7 is_stmt 0 view .LVU50
 303 0002 FFF7FEFF 		bl	XcpIsConnected
 304              	.LVL13:
 305              		.loc 1 210 6 discriminator 1 view .LVU51
 306 0006 00B1     		cbz	r0, .L33
 211:Core/Src/BLT/com.c ****   {
 212:Core/Src/BLT/com.c ****     result = BLT_TRUE;
ARM GAS  /tmp/ccPuPmgI.s 			page 10


 307              		.loc 1 212 12 view .LVU52
 308 0008 0120     		movs	r0, #1
 309              	.L33:
 310              	.LVL14:
 213:Core/Src/BLT/com.c ****   }
 214:Core/Src/BLT/com.c **** #if (ADDON_GATEWAY_MOD_ENABLE > 0)
 215:Core/Src/BLT/com.c ****   /* Is the gateway active? This indicates an XCP connection with a slave. */
 216:Core/Src/BLT/com.c ****   if (GatewayIsActive())
 217:Core/Src/BLT/com.c ****   {
 218:Core/Src/BLT/com.c ****     result = BLT_TRUE;
 219:Core/Src/BLT/com.c ****   }
 220:Core/Src/BLT/com.c **** #endif
 221:Core/Src/BLT/com.c ****   /* give the result back to the caller. */
 222:Core/Src/BLT/com.c ****   return result;
 311              		.loc 1 222 3 is_stmt 1 view .LVU53
 223:Core/Src/BLT/com.c **** } /*** end of ComIsConnected ***/
 312              		.loc 1 223 1 is_stmt 0 view .LVU54
 313 000a 08BD     		pop	{r3, pc}
 314              		.cfi_endproc
 315              	.LFE6:
 317              		.section	.bss.xcpCtoReqPacket.0,"aw",%nobits
 318              		.align	2
 321              	xcpCtoReqPacket.0:
 322 0000 00000000 		.space	64
 322      00000000 
 322      00000000 
 322      00000000 
 322      00000000 
 323              		.section	.data.comActiveInterface,"aw"
 326              	comActiveInterface:
 327 0000 04       		.byte	4
 328              		.text
 329              	.Letext0:
 330              		.file 2 "Core/Inc/BLT/types.h"
 331              		.file 3 "Core/Inc/BLT/com.h"
 332              		.file 4 "Core/Inc/BLT/can.h"
 333              		.file 5 "Core/Inc/BLT/xcp.h"
ARM GAS  /tmp/ccPuPmgI.s 			page 11

