ARM GAS  /tmp/ccc7EsBH.s 			page 1


   1              		.cpu cortex-m4
   2              		.arch armv7e-m
   3              		.fpu fpv4-sp-d16
   4              		.eabi_attribute 27, 1
   5              		.eabi_attribute 28, 1
   6              		.eabi_attribute 20, 1
   7              		.eabi_attribute 21, 1
   8              		.eabi_attribute 23, 3
   9              		.eabi_attribute 24, 1
  10              		.eabi_attribute 25, 1
  11              		.eabi_attribute 26, 1
  12              		.eabi_attribute 30, 1
  13              		.eabi_attribute 34, 1
  14              		.eabi_attribute 18, 4
  15              		.file	"stm32f3xx_ll_exti.c"
  16              		.text
  17              	.Ltext0:
  18              		.cfi_sections	.debug_frame
  19              		.file 1 "Drivers/STM32F3xx_HAL_Driver/Src/stm32f3xx_ll_exti.c"
  20              		.section	.text.LL_EXTI_DeInit,"ax",%progbits
  21              		.align	1
  22              		.global	LL_EXTI_DeInit
  23              		.syntax unified
  24              		.thumb
  25              		.thumb_func
  27              	LL_EXTI_DeInit:
  28              	.LFB155:
   1:Drivers/STM32F3xx_HAL_Driver/Src/stm32f3xx_ll_exti.c **** /**
   2:Drivers/STM32F3xx_HAL_Driver/Src/stm32f3xx_ll_exti.c ****   ******************************************************************************
   3:Drivers/STM32F3xx_HAL_Driver/Src/stm32f3xx_ll_exti.c ****   * @file    stm32f3xx_ll_exti.c
   4:Drivers/STM32F3xx_HAL_Driver/Src/stm32f3xx_ll_exti.c ****   * @author  MCD Application Team
   5:Drivers/STM32F3xx_HAL_Driver/Src/stm32f3xx_ll_exti.c ****   * @brief   EXTI LL module driver.
   6:Drivers/STM32F3xx_HAL_Driver/Src/stm32f3xx_ll_exti.c ****   ******************************************************************************
   7:Drivers/STM32F3xx_HAL_Driver/Src/stm32f3xx_ll_exti.c ****   * @attention
   8:Drivers/STM32F3xx_HAL_Driver/Src/stm32f3xx_ll_exti.c ****   *
   9:Drivers/STM32F3xx_HAL_Driver/Src/stm32f3xx_ll_exti.c ****   * Copyright (c) 2016 STMicroelectronics.
  10:Drivers/STM32F3xx_HAL_Driver/Src/stm32f3xx_ll_exti.c ****   * All rights reserved.
  11:Drivers/STM32F3xx_HAL_Driver/Src/stm32f3xx_ll_exti.c ****   *
  12:Drivers/STM32F3xx_HAL_Driver/Src/stm32f3xx_ll_exti.c ****   * This software is licensed under terms that can be found in the LICENSE file
  13:Drivers/STM32F3xx_HAL_Driver/Src/stm32f3xx_ll_exti.c ****   * in the root directory of this software component.
  14:Drivers/STM32F3xx_HAL_Driver/Src/stm32f3xx_ll_exti.c ****   * If no LICENSE file comes with this software, it is provided AS-IS.
  15:Drivers/STM32F3xx_HAL_Driver/Src/stm32f3xx_ll_exti.c ****   *
  16:Drivers/STM32F3xx_HAL_Driver/Src/stm32f3xx_ll_exti.c ****   ******************************************************************************
  17:Drivers/STM32F3xx_HAL_Driver/Src/stm32f3xx_ll_exti.c ****   */
  18:Drivers/STM32F3xx_HAL_Driver/Src/stm32f3xx_ll_exti.c **** #if defined(USE_FULL_LL_DRIVER)
  19:Drivers/STM32F3xx_HAL_Driver/Src/stm32f3xx_ll_exti.c **** 
  20:Drivers/STM32F3xx_HAL_Driver/Src/stm32f3xx_ll_exti.c **** /* Includes ------------------------------------------------------------------*/
  21:Drivers/STM32F3xx_HAL_Driver/Src/stm32f3xx_ll_exti.c **** #include "stm32f3xx_ll_exti.h"
  22:Drivers/STM32F3xx_HAL_Driver/Src/stm32f3xx_ll_exti.c **** #ifdef  USE_FULL_ASSERT
  23:Drivers/STM32F3xx_HAL_Driver/Src/stm32f3xx_ll_exti.c **** #include "stm32_assert.h"
  24:Drivers/STM32F3xx_HAL_Driver/Src/stm32f3xx_ll_exti.c **** #else
  25:Drivers/STM32F3xx_HAL_Driver/Src/stm32f3xx_ll_exti.c **** #define assert_param(expr) ((void)0U)
  26:Drivers/STM32F3xx_HAL_Driver/Src/stm32f3xx_ll_exti.c **** #endif
  27:Drivers/STM32F3xx_HAL_Driver/Src/stm32f3xx_ll_exti.c **** 
  28:Drivers/STM32F3xx_HAL_Driver/Src/stm32f3xx_ll_exti.c **** /** @addtogroup STM32F3xx_LL_Driver
  29:Drivers/STM32F3xx_HAL_Driver/Src/stm32f3xx_ll_exti.c ****   * @{
  30:Drivers/STM32F3xx_HAL_Driver/Src/stm32f3xx_ll_exti.c ****   */
ARM GAS  /tmp/ccc7EsBH.s 			page 2


  31:Drivers/STM32F3xx_HAL_Driver/Src/stm32f3xx_ll_exti.c **** 
  32:Drivers/STM32F3xx_HAL_Driver/Src/stm32f3xx_ll_exti.c **** #if defined (EXTI)
  33:Drivers/STM32F3xx_HAL_Driver/Src/stm32f3xx_ll_exti.c **** 
  34:Drivers/STM32F3xx_HAL_Driver/Src/stm32f3xx_ll_exti.c **** /** @defgroup EXTI_LL EXTI
  35:Drivers/STM32F3xx_HAL_Driver/Src/stm32f3xx_ll_exti.c ****   * @{
  36:Drivers/STM32F3xx_HAL_Driver/Src/stm32f3xx_ll_exti.c ****   */
  37:Drivers/STM32F3xx_HAL_Driver/Src/stm32f3xx_ll_exti.c **** 
  38:Drivers/STM32F3xx_HAL_Driver/Src/stm32f3xx_ll_exti.c **** /* Private types -------------------------------------------------------------*/
  39:Drivers/STM32F3xx_HAL_Driver/Src/stm32f3xx_ll_exti.c **** /* Private variables ---------------------------------------------------------*/
  40:Drivers/STM32F3xx_HAL_Driver/Src/stm32f3xx_ll_exti.c **** /* Private constants ---------------------------------------------------------*/
  41:Drivers/STM32F3xx_HAL_Driver/Src/stm32f3xx_ll_exti.c **** /* Private macros ------------------------------------------------------------*/
  42:Drivers/STM32F3xx_HAL_Driver/Src/stm32f3xx_ll_exti.c **** /** @addtogroup EXTI_LL_Private_Macros
  43:Drivers/STM32F3xx_HAL_Driver/Src/stm32f3xx_ll_exti.c ****   * @{
  44:Drivers/STM32F3xx_HAL_Driver/Src/stm32f3xx_ll_exti.c ****   */
  45:Drivers/STM32F3xx_HAL_Driver/Src/stm32f3xx_ll_exti.c **** 
  46:Drivers/STM32F3xx_HAL_Driver/Src/stm32f3xx_ll_exti.c **** #define IS_LL_EXTI_LINE_0_31(__VALUE__)              (((__VALUE__) & ~LL_EXTI_LINE_ALL_0_31) == 0x0
  47:Drivers/STM32F3xx_HAL_Driver/Src/stm32f3xx_ll_exti.c **** #if defined(EXTI_32_63_SUPPORT)
  48:Drivers/STM32F3xx_HAL_Driver/Src/stm32f3xx_ll_exti.c **** #define IS_LL_EXTI_LINE_32_63(__VALUE__)             (((__VALUE__) & ~LL_EXTI_LINE_ALL_32_63) == 0x
  49:Drivers/STM32F3xx_HAL_Driver/Src/stm32f3xx_ll_exti.c **** #endif
  50:Drivers/STM32F3xx_HAL_Driver/Src/stm32f3xx_ll_exti.c **** 
  51:Drivers/STM32F3xx_HAL_Driver/Src/stm32f3xx_ll_exti.c **** #define IS_LL_EXTI_MODE(__VALUE__)                   (((__VALUE__) == LL_EXTI_MODE_IT)            \
  52:Drivers/STM32F3xx_HAL_Driver/Src/stm32f3xx_ll_exti.c ****                                                    || ((__VALUE__) == LL_EXTI_MODE_EVENT)         \
  53:Drivers/STM32F3xx_HAL_Driver/Src/stm32f3xx_ll_exti.c ****                                                    || ((__VALUE__) == LL_EXTI_MODE_IT_EVENT))
  54:Drivers/STM32F3xx_HAL_Driver/Src/stm32f3xx_ll_exti.c **** 
  55:Drivers/STM32F3xx_HAL_Driver/Src/stm32f3xx_ll_exti.c **** 
  56:Drivers/STM32F3xx_HAL_Driver/Src/stm32f3xx_ll_exti.c **** #define IS_LL_EXTI_TRIGGER(__VALUE__)                (((__VALUE__) == LL_EXTI_TRIGGER_NONE)       \
  57:Drivers/STM32F3xx_HAL_Driver/Src/stm32f3xx_ll_exti.c ****                                                    || ((__VALUE__) == LL_EXTI_TRIGGER_RISING)     \
  58:Drivers/STM32F3xx_HAL_Driver/Src/stm32f3xx_ll_exti.c ****                                                    || ((__VALUE__) == LL_EXTI_TRIGGER_FALLING)    \
  59:Drivers/STM32F3xx_HAL_Driver/Src/stm32f3xx_ll_exti.c ****                                                    || ((__VALUE__) == LL_EXTI_TRIGGER_RISING_FALLIN
  60:Drivers/STM32F3xx_HAL_Driver/Src/stm32f3xx_ll_exti.c **** 
  61:Drivers/STM32F3xx_HAL_Driver/Src/stm32f3xx_ll_exti.c **** /**
  62:Drivers/STM32F3xx_HAL_Driver/Src/stm32f3xx_ll_exti.c ****   * @}
  63:Drivers/STM32F3xx_HAL_Driver/Src/stm32f3xx_ll_exti.c ****   */
  64:Drivers/STM32F3xx_HAL_Driver/Src/stm32f3xx_ll_exti.c **** 
  65:Drivers/STM32F3xx_HAL_Driver/Src/stm32f3xx_ll_exti.c **** /* Private function prototypes -----------------------------------------------*/
  66:Drivers/STM32F3xx_HAL_Driver/Src/stm32f3xx_ll_exti.c **** 
  67:Drivers/STM32F3xx_HAL_Driver/Src/stm32f3xx_ll_exti.c **** /* Exported functions --------------------------------------------------------*/
  68:Drivers/STM32F3xx_HAL_Driver/Src/stm32f3xx_ll_exti.c **** /** @addtogroup EXTI_LL_Exported_Functions
  69:Drivers/STM32F3xx_HAL_Driver/Src/stm32f3xx_ll_exti.c ****   * @{
  70:Drivers/STM32F3xx_HAL_Driver/Src/stm32f3xx_ll_exti.c ****   */
  71:Drivers/STM32F3xx_HAL_Driver/Src/stm32f3xx_ll_exti.c **** 
  72:Drivers/STM32F3xx_HAL_Driver/Src/stm32f3xx_ll_exti.c **** /** @addtogroup EXTI_LL_EF_Init
  73:Drivers/STM32F3xx_HAL_Driver/Src/stm32f3xx_ll_exti.c ****   * @{
  74:Drivers/STM32F3xx_HAL_Driver/Src/stm32f3xx_ll_exti.c ****   */
  75:Drivers/STM32F3xx_HAL_Driver/Src/stm32f3xx_ll_exti.c **** 
  76:Drivers/STM32F3xx_HAL_Driver/Src/stm32f3xx_ll_exti.c **** /**
  77:Drivers/STM32F3xx_HAL_Driver/Src/stm32f3xx_ll_exti.c ****   * @brief  De-initialize the EXTI registers to their default reset values.
  78:Drivers/STM32F3xx_HAL_Driver/Src/stm32f3xx_ll_exti.c ****   * @retval An ErrorStatus enumeration value:
  79:Drivers/STM32F3xx_HAL_Driver/Src/stm32f3xx_ll_exti.c ****   *          - SUCCESS: EXTI registers are de-initialized
  80:Drivers/STM32F3xx_HAL_Driver/Src/stm32f3xx_ll_exti.c ****   *          - ERROR: not applicable
  81:Drivers/STM32F3xx_HAL_Driver/Src/stm32f3xx_ll_exti.c ****   */
  82:Drivers/STM32F3xx_HAL_Driver/Src/stm32f3xx_ll_exti.c **** uint32_t LL_EXTI_DeInit(void)
  83:Drivers/STM32F3xx_HAL_Driver/Src/stm32f3xx_ll_exti.c **** {
  29              		.loc 1 83 1 view -0
  30              		.cfi_startproc
  31              		@ args = 0, pretend = 0, frame = 0
  32              		@ frame_needed = 0, uses_anonymous_args = 0
ARM GAS  /tmp/ccc7EsBH.s 			page 3


  33              		@ link register save eliminated.
  84:Drivers/STM32F3xx_HAL_Driver/Src/stm32f3xx_ll_exti.c ****   /* Interrupt mask register set to default reset values */
  85:Drivers/STM32F3xx_HAL_Driver/Src/stm32f3xx_ll_exti.c ****   LL_EXTI_WriteReg(IMR,   0x1F800000U);
  34              		.loc 1 85 3 view .LVU1
  35 0000 0A4B     		ldr	r3, .L2
  36 0002 4FF0FC52 		mov	r2, #528482304
  37 0006 1A60     		str	r2, [r3]
  86:Drivers/STM32F3xx_HAL_Driver/Src/stm32f3xx_ll_exti.c ****   /* Event mask register set to default reset values */
  87:Drivers/STM32F3xx_HAL_Driver/Src/stm32f3xx_ll_exti.c ****   LL_EXTI_WriteReg(EMR,   0x00000000U);
  38              		.loc 1 87 3 view .LVU2
  39 0008 0020     		movs	r0, #0
  40 000a 5860     		str	r0, [r3, #4]
  88:Drivers/STM32F3xx_HAL_Driver/Src/stm32f3xx_ll_exti.c ****   /* Rising Trigger selection register set to default reset values */
  89:Drivers/STM32F3xx_HAL_Driver/Src/stm32f3xx_ll_exti.c ****   LL_EXTI_WriteReg(RTSR,  0x00000000U);
  41              		.loc 1 89 3 view .LVU3
  42 000c 9860     		str	r0, [r3, #8]
  90:Drivers/STM32F3xx_HAL_Driver/Src/stm32f3xx_ll_exti.c ****   /* Falling Trigger selection register set to default reset values */
  91:Drivers/STM32F3xx_HAL_Driver/Src/stm32f3xx_ll_exti.c ****   LL_EXTI_WriteReg(FTSR,  0x00000000U);
  43              		.loc 1 91 3 view .LVU4
  44 000e D860     		str	r0, [r3, #12]
  92:Drivers/STM32F3xx_HAL_Driver/Src/stm32f3xx_ll_exti.c ****   /* Software interrupt event register set to default reset values */
  93:Drivers/STM32F3xx_HAL_Driver/Src/stm32f3xx_ll_exti.c ****   LL_EXTI_WriteReg(SWIER, 0x00000000U);
  45              		.loc 1 93 3 view .LVU5
  46 0010 1861     		str	r0, [r3, #16]
  94:Drivers/STM32F3xx_HAL_Driver/Src/stm32f3xx_ll_exti.c ****   /* Pending register clear */
  95:Drivers/STM32F3xx_HAL_Driver/Src/stm32f3xx_ll_exti.c ****   LL_EXTI_WriteReg(PR,    0x007FFFFFU);
  47              		.loc 1 95 3 view .LVU6
  48 0012 074A     		ldr	r2, .L2+4
  49 0014 5A61     		str	r2, [r3, #20]
  96:Drivers/STM32F3xx_HAL_Driver/Src/stm32f3xx_ll_exti.c **** 
  97:Drivers/STM32F3xx_HAL_Driver/Src/stm32f3xx_ll_exti.c **** #if defined(EXTI_32_63_SUPPORT)
  98:Drivers/STM32F3xx_HAL_Driver/Src/stm32f3xx_ll_exti.c ****   /* Interrupt mask register 2 set to default reset values */
  99:Drivers/STM32F3xx_HAL_Driver/Src/stm32f3xx_ll_exti.c **** #if defined(STM32F334x8)
 100:Drivers/STM32F3xx_HAL_Driver/Src/stm32f3xx_ll_exti.c ****   LL_EXTI_WriteReg(IMR2,        0xFFFFFFFEU);
 101:Drivers/STM32F3xx_HAL_Driver/Src/stm32f3xx_ll_exti.c **** #else
 102:Drivers/STM32F3xx_HAL_Driver/Src/stm32f3xx_ll_exti.c ****   LL_EXTI_WriteReg(IMR2,        0xFFFFFFFCU);
  50              		.loc 1 102 3 view .LVU7
  51 0016 6FF00302 		mvn	r2, #3
  52 001a 1A62     		str	r2, [r3, #32]
 103:Drivers/STM32F3xx_HAL_Driver/Src/stm32f3xx_ll_exti.c **** #endif  
 104:Drivers/STM32F3xx_HAL_Driver/Src/stm32f3xx_ll_exti.c ****   /* Event mask register 2 set to default reset values */
 105:Drivers/STM32F3xx_HAL_Driver/Src/stm32f3xx_ll_exti.c ****   LL_EXTI_WriteReg(EMR2,        0x00000000U);
  53              		.loc 1 105 3 view .LVU8
  54 001c 5862     		str	r0, [r3, #36]
 106:Drivers/STM32F3xx_HAL_Driver/Src/stm32f3xx_ll_exti.c ****   /* Rising Trigger selection register 2 set to default reset values */
 107:Drivers/STM32F3xx_HAL_Driver/Src/stm32f3xx_ll_exti.c ****   LL_EXTI_WriteReg(RTSR2,       0x00000000U);
  55              		.loc 1 107 3 view .LVU9
  56 001e 9862     		str	r0, [r3, #40]
 108:Drivers/STM32F3xx_HAL_Driver/Src/stm32f3xx_ll_exti.c ****   /* Falling Trigger selection register 2 set to default reset values */
 109:Drivers/STM32F3xx_HAL_Driver/Src/stm32f3xx_ll_exti.c ****   LL_EXTI_WriteReg(FTSR2,       0x00000000U);
  57              		.loc 1 109 3 view .LVU10
  58 0020 D862     		str	r0, [r3, #44]
 110:Drivers/STM32F3xx_HAL_Driver/Src/stm32f3xx_ll_exti.c ****   /* Software interrupt event register 2 set to default reset values */
 111:Drivers/STM32F3xx_HAL_Driver/Src/stm32f3xx_ll_exti.c ****   LL_EXTI_WriteReg(SWIER2,      0x00000000U);
  59              		.loc 1 111 3 view .LVU11
  60 0022 1863     		str	r0, [r3, #48]
 112:Drivers/STM32F3xx_HAL_Driver/Src/stm32f3xx_ll_exti.c ****   /* Pending register 2 clear */
ARM GAS  /tmp/ccc7EsBH.s 			page 4


 113:Drivers/STM32F3xx_HAL_Driver/Src/stm32f3xx_ll_exti.c ****   LL_EXTI_WriteReg(PR2,         0x00000003U);
  61              		.loc 1 113 3 view .LVU12
  62 0024 0322     		movs	r2, #3
  63 0026 5A63     		str	r2, [r3, #52]
 114:Drivers/STM32F3xx_HAL_Driver/Src/stm32f3xx_ll_exti.c **** 
 115:Drivers/STM32F3xx_HAL_Driver/Src/stm32f3xx_ll_exti.c **** #endif
 116:Drivers/STM32F3xx_HAL_Driver/Src/stm32f3xx_ll_exti.c ****   return SUCCESS;
  64              		.loc 1 116 3 view .LVU13
 117:Drivers/STM32F3xx_HAL_Driver/Src/stm32f3xx_ll_exti.c **** }
  65              		.loc 1 117 1 is_stmt 0 view .LVU14
  66 0028 7047     		bx	lr
  67              	.L3:
  68 002a 00BF     		.align	2
  69              	.L2:
  70 002c 00040140 		.word	1073808384
  71 0030 FFFF7F00 		.word	8388607
  72              		.cfi_endproc
  73              	.LFE155:
  75              		.section	.text.LL_EXTI_Init,"ax",%progbits
  76              		.align	1
  77              		.global	LL_EXTI_Init
  78              		.syntax unified
  79              		.thumb
  80              		.thumb_func
  82              	LL_EXTI_Init:
  83              	.LVL0:
  84              	.LFB156:
 118:Drivers/STM32F3xx_HAL_Driver/Src/stm32f3xx_ll_exti.c **** 
 119:Drivers/STM32F3xx_HAL_Driver/Src/stm32f3xx_ll_exti.c **** /**
 120:Drivers/STM32F3xx_HAL_Driver/Src/stm32f3xx_ll_exti.c ****   * @brief  Initialize the EXTI registers according to the specified parameters in EXTI_InitStruct.
 121:Drivers/STM32F3xx_HAL_Driver/Src/stm32f3xx_ll_exti.c ****   * @param  EXTI_InitStruct pointer to a @ref LL_EXTI_InitTypeDef structure.
 122:Drivers/STM32F3xx_HAL_Driver/Src/stm32f3xx_ll_exti.c ****   * @retval An ErrorStatus enumeration value:
 123:Drivers/STM32F3xx_HAL_Driver/Src/stm32f3xx_ll_exti.c ****   *          - SUCCESS: EXTI registers are initialized
 124:Drivers/STM32F3xx_HAL_Driver/Src/stm32f3xx_ll_exti.c ****   *          - ERROR: not applicable
 125:Drivers/STM32F3xx_HAL_Driver/Src/stm32f3xx_ll_exti.c ****   */
 126:Drivers/STM32F3xx_HAL_Driver/Src/stm32f3xx_ll_exti.c **** uint32_t LL_EXTI_Init(LL_EXTI_InitTypeDef *EXTI_InitStruct)
 127:Drivers/STM32F3xx_HAL_Driver/Src/stm32f3xx_ll_exti.c **** {
  85              		.loc 1 127 1 is_stmt 1 view -0
  86              		.cfi_startproc
  87              		@ args = 0, pretend = 0, frame = 0
  88              		@ frame_needed = 0, uses_anonymous_args = 0
  89              		@ link register save eliminated.
  90              		.loc 1 127 1 is_stmt 0 view .LVU16
  91 0000 10B4     		push	{r4}
  92              		.cfi_def_cfa_offset 4
  93              		.cfi_offset 4, -4
  94 0002 0346     		mov	r3, r0
 128:Drivers/STM32F3xx_HAL_Driver/Src/stm32f3xx_ll_exti.c ****   ErrorStatus status = SUCCESS;
  95              		.loc 1 128 3 is_stmt 1 view .LVU17
  96              	.LVL1:
 129:Drivers/STM32F3xx_HAL_Driver/Src/stm32f3xx_ll_exti.c ****   /* Check the parameters */
 130:Drivers/STM32F3xx_HAL_Driver/Src/stm32f3xx_ll_exti.c ****   assert_param(IS_LL_EXTI_LINE_0_31(EXTI_InitStruct->Line_0_31));
  97              		.loc 1 130 3 view .LVU18
 131:Drivers/STM32F3xx_HAL_Driver/Src/stm32f3xx_ll_exti.c **** #if defined(EXTI_32_63_SUPPORT)
 132:Drivers/STM32F3xx_HAL_Driver/Src/stm32f3xx_ll_exti.c ****   assert_param(IS_LL_EXTI_LINE_32_63(EXTI_InitStruct->Line_32_63));
  98              		.loc 1 132 3 view .LVU19
 133:Drivers/STM32F3xx_HAL_Driver/Src/stm32f3xx_ll_exti.c **** #endif
ARM GAS  /tmp/ccc7EsBH.s 			page 5


 134:Drivers/STM32F3xx_HAL_Driver/Src/stm32f3xx_ll_exti.c ****   assert_param(IS_FUNCTIONAL_STATE(EXTI_InitStruct->LineCommand));
  99              		.loc 1 134 3 view .LVU20
 135:Drivers/STM32F3xx_HAL_Driver/Src/stm32f3xx_ll_exti.c ****   assert_param(IS_LL_EXTI_MODE(EXTI_InitStruct->Mode));
 100              		.loc 1 135 3 view .LVU21
 136:Drivers/STM32F3xx_HAL_Driver/Src/stm32f3xx_ll_exti.c **** 
 137:Drivers/STM32F3xx_HAL_Driver/Src/stm32f3xx_ll_exti.c ****   /* ENABLE LineCommand */
 138:Drivers/STM32F3xx_HAL_Driver/Src/stm32f3xx_ll_exti.c ****   if (EXTI_InitStruct->LineCommand != DISABLE)
 101              		.loc 1 138 3 view .LVU22
 102              		.loc 1 138 22 is_stmt 0 view .LVU23
 103 0004 007A     		ldrb	r0, [r0, #8]	@ zero_extendqisi2
 104              	.LVL2:
 105              		.loc 1 138 6 view .LVU24
 106 0006 0028     		cmp	r0, #0
 107 0008 00F0AA80 		beq	.L5
 139:Drivers/STM32F3xx_HAL_Driver/Src/stm32f3xx_ll_exti.c ****   {
 140:Drivers/STM32F3xx_HAL_Driver/Src/stm32f3xx_ll_exti.c ****     assert_param(IS_LL_EXTI_TRIGGER(EXTI_InitStruct->Trigger));
 108              		.loc 1 140 5 is_stmt 1 view .LVU25
 141:Drivers/STM32F3xx_HAL_Driver/Src/stm32f3xx_ll_exti.c **** 
 142:Drivers/STM32F3xx_HAL_Driver/Src/stm32f3xx_ll_exti.c ****     /* Configure EXTI Lines in range from 0 to 31 */
 143:Drivers/STM32F3xx_HAL_Driver/Src/stm32f3xx_ll_exti.c ****     if (EXTI_InitStruct->Line_0_31 != LL_EXTI_LINE_NONE)
 109              		.loc 1 143 5 view .LVU26
 110              		.loc 1 143 24 is_stmt 0 view .LVU27
 111 000c 1A68     		ldr	r2, [r3]
 112              		.loc 1 143 8 view .LVU28
 113 000e 002A     		cmp	r2, #0
 114 0010 4FD0     		beq	.L18
 144:Drivers/STM32F3xx_HAL_Driver/Src/stm32f3xx_ll_exti.c ****     {
 145:Drivers/STM32F3xx_HAL_Driver/Src/stm32f3xx_ll_exti.c ****       switch (EXTI_InitStruct->Mode)
 115              		.loc 1 145 7 is_stmt 1 view .LVU29
 116              		.loc 1 145 30 is_stmt 0 view .LVU30
 117 0012 587A     		ldrb	r0, [r3, #9]	@ zero_extendqisi2
 118              		.loc 1 145 7 view .LVU31
 119 0014 0128     		cmp	r0, #1
 120 0016 20D0     		beq	.L7
 121 0018 0228     		cmp	r0, #2
 122 001a 29D0     		beq	.L8
 123 001c 0028     		cmp	r0, #0
 124 001e 31D1     		bne	.L19
 146:Drivers/STM32F3xx_HAL_Driver/Src/stm32f3xx_ll_exti.c ****       {
 147:Drivers/STM32F3xx_HAL_Driver/Src/stm32f3xx_ll_exti.c ****         case LL_EXTI_MODE_IT:
 148:Drivers/STM32F3xx_HAL_Driver/Src/stm32f3xx_ll_exti.c ****           /* First Disable Event on provided Lines */
 149:Drivers/STM32F3xx_HAL_Driver/Src/stm32f3xx_ll_exti.c ****           LL_EXTI_DisableEvent_0_31(EXTI_InitStruct->Line_0_31);
 125              		.loc 1 149 11 is_stmt 1 view .LVU32
 126              	.LVL3:
 127              	.LBB58:
 128              	.LBI58:
 129              		.file 2 "Drivers/STM32F3xx_HAL_Driver/Inc/stm32f3xx_ll_exti.h"
   1:Drivers/STM32F3xx_HAL_Driver/Inc/stm32f3xx_ll_exti.h **** /**
   2:Drivers/STM32F3xx_HAL_Driver/Inc/stm32f3xx_ll_exti.h ****   ******************************************************************************
   3:Drivers/STM32F3xx_HAL_Driver/Inc/stm32f3xx_ll_exti.h ****   * @file    stm32f3xx_ll_exti.h
   4:Drivers/STM32F3xx_HAL_Driver/Inc/stm32f3xx_ll_exti.h ****   * @author  MCD Application Team
   5:Drivers/STM32F3xx_HAL_Driver/Inc/stm32f3xx_ll_exti.h ****   * @brief   Header file of EXTI LL module.
   6:Drivers/STM32F3xx_HAL_Driver/Inc/stm32f3xx_ll_exti.h ****   ******************************************************************************
   7:Drivers/STM32F3xx_HAL_Driver/Inc/stm32f3xx_ll_exti.h ****   * @attention
   8:Drivers/STM32F3xx_HAL_Driver/Inc/stm32f3xx_ll_exti.h ****   *
   9:Drivers/STM32F3xx_HAL_Driver/Inc/stm32f3xx_ll_exti.h ****   * Copyright (c) 2016 STMicroelectronics.
  10:Drivers/STM32F3xx_HAL_Driver/Inc/stm32f3xx_ll_exti.h ****   * All rights reserved.
ARM GAS  /tmp/ccc7EsBH.s 			page 6


  11:Drivers/STM32F3xx_HAL_Driver/Inc/stm32f3xx_ll_exti.h ****   *
  12:Drivers/STM32F3xx_HAL_Driver/Inc/stm32f3xx_ll_exti.h ****   * This software is licensed under terms that can be found in the LICENSE file
  13:Drivers/STM32F3xx_HAL_Driver/Inc/stm32f3xx_ll_exti.h ****   * in the root directory of this software component.
  14:Drivers/STM32F3xx_HAL_Driver/Inc/stm32f3xx_ll_exti.h ****   * If no LICENSE file comes with this software, it is provided AS-IS.
  15:Drivers/STM32F3xx_HAL_Driver/Inc/stm32f3xx_ll_exti.h ****   *
  16:Drivers/STM32F3xx_HAL_Driver/Inc/stm32f3xx_ll_exti.h ****   ******************************************************************************
  17:Drivers/STM32F3xx_HAL_Driver/Inc/stm32f3xx_ll_exti.h ****   */
  18:Drivers/STM32F3xx_HAL_Driver/Inc/stm32f3xx_ll_exti.h **** 
  19:Drivers/STM32F3xx_HAL_Driver/Inc/stm32f3xx_ll_exti.h **** /* Define to prevent recursive inclusion -------------------------------------*/
  20:Drivers/STM32F3xx_HAL_Driver/Inc/stm32f3xx_ll_exti.h **** #ifndef __STM32F3xx_LL_EXTI_H
  21:Drivers/STM32F3xx_HAL_Driver/Inc/stm32f3xx_ll_exti.h **** #define __STM32F3xx_LL_EXTI_H
  22:Drivers/STM32F3xx_HAL_Driver/Inc/stm32f3xx_ll_exti.h **** 
  23:Drivers/STM32F3xx_HAL_Driver/Inc/stm32f3xx_ll_exti.h **** #ifdef __cplusplus
  24:Drivers/STM32F3xx_HAL_Driver/Inc/stm32f3xx_ll_exti.h **** extern "C" {
  25:Drivers/STM32F3xx_HAL_Driver/Inc/stm32f3xx_ll_exti.h **** #endif
  26:Drivers/STM32F3xx_HAL_Driver/Inc/stm32f3xx_ll_exti.h **** 
  27:Drivers/STM32F3xx_HAL_Driver/Inc/stm32f3xx_ll_exti.h **** /* Includes ------------------------------------------------------------------*/
  28:Drivers/STM32F3xx_HAL_Driver/Inc/stm32f3xx_ll_exti.h **** #include "stm32f3xx.h"
  29:Drivers/STM32F3xx_HAL_Driver/Inc/stm32f3xx_ll_exti.h **** 
  30:Drivers/STM32F3xx_HAL_Driver/Inc/stm32f3xx_ll_exti.h **** /** @addtogroup STM32F3xx_LL_Driver
  31:Drivers/STM32F3xx_HAL_Driver/Inc/stm32f3xx_ll_exti.h ****   * @{
  32:Drivers/STM32F3xx_HAL_Driver/Inc/stm32f3xx_ll_exti.h ****   */
  33:Drivers/STM32F3xx_HAL_Driver/Inc/stm32f3xx_ll_exti.h **** 
  34:Drivers/STM32F3xx_HAL_Driver/Inc/stm32f3xx_ll_exti.h **** #if defined (EXTI)
  35:Drivers/STM32F3xx_HAL_Driver/Inc/stm32f3xx_ll_exti.h **** 
  36:Drivers/STM32F3xx_HAL_Driver/Inc/stm32f3xx_ll_exti.h **** /** @defgroup EXTI_LL EXTI
  37:Drivers/STM32F3xx_HAL_Driver/Inc/stm32f3xx_ll_exti.h ****   * @{
  38:Drivers/STM32F3xx_HAL_Driver/Inc/stm32f3xx_ll_exti.h ****   */
  39:Drivers/STM32F3xx_HAL_Driver/Inc/stm32f3xx_ll_exti.h **** 
  40:Drivers/STM32F3xx_HAL_Driver/Inc/stm32f3xx_ll_exti.h **** /* Private types -------------------------------------------------------------*/
  41:Drivers/STM32F3xx_HAL_Driver/Inc/stm32f3xx_ll_exti.h **** /* Private variables ---------------------------------------------------------*/
  42:Drivers/STM32F3xx_HAL_Driver/Inc/stm32f3xx_ll_exti.h **** /* Private constants ---------------------------------------------------------*/
  43:Drivers/STM32F3xx_HAL_Driver/Inc/stm32f3xx_ll_exti.h **** /* Private Macros ------------------------------------------------------------*/
  44:Drivers/STM32F3xx_HAL_Driver/Inc/stm32f3xx_ll_exti.h **** #if defined(USE_FULL_LL_DRIVER)
  45:Drivers/STM32F3xx_HAL_Driver/Inc/stm32f3xx_ll_exti.h **** /** @defgroup EXTI_LL_Private_Macros EXTI Private Macros
  46:Drivers/STM32F3xx_HAL_Driver/Inc/stm32f3xx_ll_exti.h ****   * @{
  47:Drivers/STM32F3xx_HAL_Driver/Inc/stm32f3xx_ll_exti.h ****   */
  48:Drivers/STM32F3xx_HAL_Driver/Inc/stm32f3xx_ll_exti.h **** /**
  49:Drivers/STM32F3xx_HAL_Driver/Inc/stm32f3xx_ll_exti.h ****   * @}
  50:Drivers/STM32F3xx_HAL_Driver/Inc/stm32f3xx_ll_exti.h ****   */
  51:Drivers/STM32F3xx_HAL_Driver/Inc/stm32f3xx_ll_exti.h **** #endif /*USE_FULL_LL_DRIVER*/
  52:Drivers/STM32F3xx_HAL_Driver/Inc/stm32f3xx_ll_exti.h **** /* Exported types ------------------------------------------------------------*/
  53:Drivers/STM32F3xx_HAL_Driver/Inc/stm32f3xx_ll_exti.h **** #if defined(USE_FULL_LL_DRIVER)
  54:Drivers/STM32F3xx_HAL_Driver/Inc/stm32f3xx_ll_exti.h **** /** @defgroup EXTI_LL_ES_INIT EXTI Exported Init structure
  55:Drivers/STM32F3xx_HAL_Driver/Inc/stm32f3xx_ll_exti.h ****   * @{
  56:Drivers/STM32F3xx_HAL_Driver/Inc/stm32f3xx_ll_exti.h ****   */
  57:Drivers/STM32F3xx_HAL_Driver/Inc/stm32f3xx_ll_exti.h **** typedef struct
  58:Drivers/STM32F3xx_HAL_Driver/Inc/stm32f3xx_ll_exti.h **** {
  59:Drivers/STM32F3xx_HAL_Driver/Inc/stm32f3xx_ll_exti.h **** 
  60:Drivers/STM32F3xx_HAL_Driver/Inc/stm32f3xx_ll_exti.h ****   uint32_t Line_0_31;           /*!< Specifies the EXTI lines to be enabled or disabled for Lines i
  61:Drivers/STM32F3xx_HAL_Driver/Inc/stm32f3xx_ll_exti.h ****                                      This parameter can be any combination of @ref EXTI_LL_EC_LINE 
  62:Drivers/STM32F3xx_HAL_Driver/Inc/stm32f3xx_ll_exti.h **** #if defined(EXTI_32_63_SUPPORT)
  63:Drivers/STM32F3xx_HAL_Driver/Inc/stm32f3xx_ll_exti.h **** 
  64:Drivers/STM32F3xx_HAL_Driver/Inc/stm32f3xx_ll_exti.h ****   uint32_t Line_32_63;          /*!< Specifies the EXTI lines to be enabled or disabled for Lines i
  65:Drivers/STM32F3xx_HAL_Driver/Inc/stm32f3xx_ll_exti.h ****                                      This parameter can be any combination of @ref EXTI_LL_EC_LINE 
  66:Drivers/STM32F3xx_HAL_Driver/Inc/stm32f3xx_ll_exti.h **** #endif
  67:Drivers/STM32F3xx_HAL_Driver/Inc/stm32f3xx_ll_exti.h **** 
ARM GAS  /tmp/ccc7EsBH.s 			page 7


  68:Drivers/STM32F3xx_HAL_Driver/Inc/stm32f3xx_ll_exti.h ****   FunctionalState LineCommand;  /*!< Specifies the new state of the selected EXTI lines.
  69:Drivers/STM32F3xx_HAL_Driver/Inc/stm32f3xx_ll_exti.h ****                                      This parameter can be set either to ENABLE or DISABLE */
  70:Drivers/STM32F3xx_HAL_Driver/Inc/stm32f3xx_ll_exti.h **** 
  71:Drivers/STM32F3xx_HAL_Driver/Inc/stm32f3xx_ll_exti.h ****   uint8_t Mode;                 /*!< Specifies the mode for the EXTI lines.
  72:Drivers/STM32F3xx_HAL_Driver/Inc/stm32f3xx_ll_exti.h ****                                      This parameter can be a value of @ref EXTI_LL_EC_MODE. */
  73:Drivers/STM32F3xx_HAL_Driver/Inc/stm32f3xx_ll_exti.h **** 
  74:Drivers/STM32F3xx_HAL_Driver/Inc/stm32f3xx_ll_exti.h ****   uint8_t Trigger;              /*!< Specifies the trigger signal active edge for the EXTI lines.
  75:Drivers/STM32F3xx_HAL_Driver/Inc/stm32f3xx_ll_exti.h ****                                      This parameter can be a value of @ref EXTI_LL_EC_TRIGGER. */
  76:Drivers/STM32F3xx_HAL_Driver/Inc/stm32f3xx_ll_exti.h **** } LL_EXTI_InitTypeDef;
  77:Drivers/STM32F3xx_HAL_Driver/Inc/stm32f3xx_ll_exti.h **** 
  78:Drivers/STM32F3xx_HAL_Driver/Inc/stm32f3xx_ll_exti.h **** /**
  79:Drivers/STM32F3xx_HAL_Driver/Inc/stm32f3xx_ll_exti.h ****   * @}
  80:Drivers/STM32F3xx_HAL_Driver/Inc/stm32f3xx_ll_exti.h ****   */
  81:Drivers/STM32F3xx_HAL_Driver/Inc/stm32f3xx_ll_exti.h **** #endif /*USE_FULL_LL_DRIVER*/
  82:Drivers/STM32F3xx_HAL_Driver/Inc/stm32f3xx_ll_exti.h **** 
  83:Drivers/STM32F3xx_HAL_Driver/Inc/stm32f3xx_ll_exti.h **** /* Exported constants --------------------------------------------------------*/
  84:Drivers/STM32F3xx_HAL_Driver/Inc/stm32f3xx_ll_exti.h **** /** @defgroup EXTI_LL_Exported_Constants EXTI Exported Constants
  85:Drivers/STM32F3xx_HAL_Driver/Inc/stm32f3xx_ll_exti.h ****   * @{
  86:Drivers/STM32F3xx_HAL_Driver/Inc/stm32f3xx_ll_exti.h ****   */
  87:Drivers/STM32F3xx_HAL_Driver/Inc/stm32f3xx_ll_exti.h **** 
  88:Drivers/STM32F3xx_HAL_Driver/Inc/stm32f3xx_ll_exti.h **** /** @defgroup EXTI_LL_EC_LINE LINE
  89:Drivers/STM32F3xx_HAL_Driver/Inc/stm32f3xx_ll_exti.h ****   * @{
  90:Drivers/STM32F3xx_HAL_Driver/Inc/stm32f3xx_ll_exti.h ****   */
  91:Drivers/STM32F3xx_HAL_Driver/Inc/stm32f3xx_ll_exti.h **** #define LL_EXTI_LINE_0                 EXTI_IMR_IM0           /*!< Extended line 0 */
  92:Drivers/STM32F3xx_HAL_Driver/Inc/stm32f3xx_ll_exti.h **** #define LL_EXTI_LINE_1                 EXTI_IMR_IM1           /*!< Extended line 1 */
  93:Drivers/STM32F3xx_HAL_Driver/Inc/stm32f3xx_ll_exti.h **** #define LL_EXTI_LINE_2                 EXTI_IMR_IM2           /*!< Extended line 2 */
  94:Drivers/STM32F3xx_HAL_Driver/Inc/stm32f3xx_ll_exti.h **** #define LL_EXTI_LINE_3                 EXTI_IMR_IM3           /*!< Extended line 3 */
  95:Drivers/STM32F3xx_HAL_Driver/Inc/stm32f3xx_ll_exti.h **** #define LL_EXTI_LINE_4                 EXTI_IMR_IM4           /*!< Extended line 4 */
  96:Drivers/STM32F3xx_HAL_Driver/Inc/stm32f3xx_ll_exti.h **** #define LL_EXTI_LINE_5                 EXTI_IMR_IM5           /*!< Extended line 5 */
  97:Drivers/STM32F3xx_HAL_Driver/Inc/stm32f3xx_ll_exti.h **** #define LL_EXTI_LINE_6                 EXTI_IMR_IM6           /*!< Extended line 6 */
  98:Drivers/STM32F3xx_HAL_Driver/Inc/stm32f3xx_ll_exti.h **** #define LL_EXTI_LINE_7                 EXTI_IMR_IM7           /*!< Extended line 7 */
  99:Drivers/STM32F3xx_HAL_Driver/Inc/stm32f3xx_ll_exti.h **** #define LL_EXTI_LINE_8                 EXTI_IMR_IM8           /*!< Extended line 8 */
 100:Drivers/STM32F3xx_HAL_Driver/Inc/stm32f3xx_ll_exti.h **** #define LL_EXTI_LINE_9                 EXTI_IMR_IM9           /*!< Extended line 9 */
 101:Drivers/STM32F3xx_HAL_Driver/Inc/stm32f3xx_ll_exti.h **** #define LL_EXTI_LINE_10                EXTI_IMR_IM10          /*!< Extended line 10 */
 102:Drivers/STM32F3xx_HAL_Driver/Inc/stm32f3xx_ll_exti.h **** #define LL_EXTI_LINE_11                EXTI_IMR_IM11          /*!< Extended line 11 */
 103:Drivers/STM32F3xx_HAL_Driver/Inc/stm32f3xx_ll_exti.h **** #define LL_EXTI_LINE_12                EXTI_IMR_IM12          /*!< Extended line 12 */
 104:Drivers/STM32F3xx_HAL_Driver/Inc/stm32f3xx_ll_exti.h **** #define LL_EXTI_LINE_13                EXTI_IMR_IM13          /*!< Extended line 13 */
 105:Drivers/STM32F3xx_HAL_Driver/Inc/stm32f3xx_ll_exti.h **** #define LL_EXTI_LINE_14                EXTI_IMR_IM14          /*!< Extended line 14 */
 106:Drivers/STM32F3xx_HAL_Driver/Inc/stm32f3xx_ll_exti.h **** #define LL_EXTI_LINE_15                EXTI_IMR_IM15          /*!< Extended line 15 */
 107:Drivers/STM32F3xx_HAL_Driver/Inc/stm32f3xx_ll_exti.h **** #if defined(EXTI_IMR_IM16)
 108:Drivers/STM32F3xx_HAL_Driver/Inc/stm32f3xx_ll_exti.h **** #define LL_EXTI_LINE_16                EXTI_IMR_IM16          /*!< Extended line 16 */
 109:Drivers/STM32F3xx_HAL_Driver/Inc/stm32f3xx_ll_exti.h **** #endif
 110:Drivers/STM32F3xx_HAL_Driver/Inc/stm32f3xx_ll_exti.h **** #define LL_EXTI_LINE_17                EXTI_IMR_IM17          /*!< Extended line 17 */
 111:Drivers/STM32F3xx_HAL_Driver/Inc/stm32f3xx_ll_exti.h **** #if defined(EXTI_IMR_IM18)
 112:Drivers/STM32F3xx_HAL_Driver/Inc/stm32f3xx_ll_exti.h **** #define LL_EXTI_LINE_18                EXTI_IMR_IM18          /*!< Extended line 18 */
 113:Drivers/STM32F3xx_HAL_Driver/Inc/stm32f3xx_ll_exti.h **** #endif
 114:Drivers/STM32F3xx_HAL_Driver/Inc/stm32f3xx_ll_exti.h **** #define LL_EXTI_LINE_19                EXTI_IMR_IM19          /*!< Extended line 19 */
 115:Drivers/STM32F3xx_HAL_Driver/Inc/stm32f3xx_ll_exti.h **** #if defined(EXTI_IMR_IM20)
 116:Drivers/STM32F3xx_HAL_Driver/Inc/stm32f3xx_ll_exti.h **** #define LL_EXTI_LINE_20                EXTI_IMR_IM20          /*!< Extended line 20 */
 117:Drivers/STM32F3xx_HAL_Driver/Inc/stm32f3xx_ll_exti.h **** #endif
 118:Drivers/STM32F3xx_HAL_Driver/Inc/stm32f3xx_ll_exti.h **** #if defined(EXTI_IMR_IM21)
 119:Drivers/STM32F3xx_HAL_Driver/Inc/stm32f3xx_ll_exti.h **** #define LL_EXTI_LINE_21                EXTI_IMR_IM21          /*!< Extended line 21 */
 120:Drivers/STM32F3xx_HAL_Driver/Inc/stm32f3xx_ll_exti.h **** #endif
 121:Drivers/STM32F3xx_HAL_Driver/Inc/stm32f3xx_ll_exti.h **** #if defined(EXTI_IMR_IM22)
 122:Drivers/STM32F3xx_HAL_Driver/Inc/stm32f3xx_ll_exti.h **** #define LL_EXTI_LINE_22                EXTI_IMR_IM22          /*!< Extended line 22 */
 123:Drivers/STM32F3xx_HAL_Driver/Inc/stm32f3xx_ll_exti.h **** #endif
 124:Drivers/STM32F3xx_HAL_Driver/Inc/stm32f3xx_ll_exti.h **** #define LL_EXTI_LINE_23                EXTI_IMR_IM23          /*!< Extended line 23 */
ARM GAS  /tmp/ccc7EsBH.s 			page 8


 125:Drivers/STM32F3xx_HAL_Driver/Inc/stm32f3xx_ll_exti.h **** #if defined(EXTI_IMR_IM24)
 126:Drivers/STM32F3xx_HAL_Driver/Inc/stm32f3xx_ll_exti.h **** #define LL_EXTI_LINE_24                EXTI_IMR_IM24          /*!< Extended line 24 */
 127:Drivers/STM32F3xx_HAL_Driver/Inc/stm32f3xx_ll_exti.h **** #endif
 128:Drivers/STM32F3xx_HAL_Driver/Inc/stm32f3xx_ll_exti.h **** #if defined(EXTI_IMR_IM25)
 129:Drivers/STM32F3xx_HAL_Driver/Inc/stm32f3xx_ll_exti.h **** #define LL_EXTI_LINE_25                EXTI_IMR_IM25          /*!< Extended line 25 */
 130:Drivers/STM32F3xx_HAL_Driver/Inc/stm32f3xx_ll_exti.h **** #endif
 131:Drivers/STM32F3xx_HAL_Driver/Inc/stm32f3xx_ll_exti.h **** #if defined(EXTI_IMR_IM26)
 132:Drivers/STM32F3xx_HAL_Driver/Inc/stm32f3xx_ll_exti.h **** #define LL_EXTI_LINE_26                EXTI_IMR_IM26          /*!< Extended line 26 */
 133:Drivers/STM32F3xx_HAL_Driver/Inc/stm32f3xx_ll_exti.h **** #endif
 134:Drivers/STM32F3xx_HAL_Driver/Inc/stm32f3xx_ll_exti.h **** #if defined(EXTI_IMR_IM27)
 135:Drivers/STM32F3xx_HAL_Driver/Inc/stm32f3xx_ll_exti.h **** #define LL_EXTI_LINE_27                EXTI_IMR_IM27          /*!< Extended line 27 */
 136:Drivers/STM32F3xx_HAL_Driver/Inc/stm32f3xx_ll_exti.h **** #endif
 137:Drivers/STM32F3xx_HAL_Driver/Inc/stm32f3xx_ll_exti.h **** #if defined(EXTI_IMR_IM28)
 138:Drivers/STM32F3xx_HAL_Driver/Inc/stm32f3xx_ll_exti.h **** #define LL_EXTI_LINE_28                EXTI_IMR_IM28          /*!< Extended line 28 */
 139:Drivers/STM32F3xx_HAL_Driver/Inc/stm32f3xx_ll_exti.h **** #endif
 140:Drivers/STM32F3xx_HAL_Driver/Inc/stm32f3xx_ll_exti.h **** #if defined(EXTI_IMR_IM29)
 141:Drivers/STM32F3xx_HAL_Driver/Inc/stm32f3xx_ll_exti.h **** #define LL_EXTI_LINE_29                EXTI_IMR_IM29          /*!< Extended line 29 */
 142:Drivers/STM32F3xx_HAL_Driver/Inc/stm32f3xx_ll_exti.h **** #endif
 143:Drivers/STM32F3xx_HAL_Driver/Inc/stm32f3xx_ll_exti.h **** #if defined(EXTI_IMR_IM30)
 144:Drivers/STM32F3xx_HAL_Driver/Inc/stm32f3xx_ll_exti.h **** #define LL_EXTI_LINE_30                EXTI_IMR_IM30          /*!< Extended line 30 */
 145:Drivers/STM32F3xx_HAL_Driver/Inc/stm32f3xx_ll_exti.h **** #endif
 146:Drivers/STM32F3xx_HAL_Driver/Inc/stm32f3xx_ll_exti.h **** #if defined(EXTI_IMR_IM31)
 147:Drivers/STM32F3xx_HAL_Driver/Inc/stm32f3xx_ll_exti.h **** #define LL_EXTI_LINE_31                EXTI_IMR_IM31          /*!< Extended line 31 */
 148:Drivers/STM32F3xx_HAL_Driver/Inc/stm32f3xx_ll_exti.h **** #endif
 149:Drivers/STM32F3xx_HAL_Driver/Inc/stm32f3xx_ll_exti.h **** #define LL_EXTI_LINE_ALL_0_31          EXTI_IMR_IM            /*!< All Extended line not reserved*/
 150:Drivers/STM32F3xx_HAL_Driver/Inc/stm32f3xx_ll_exti.h **** 
 151:Drivers/STM32F3xx_HAL_Driver/Inc/stm32f3xx_ll_exti.h **** #if defined(EXTI_32_63_SUPPORT)
 152:Drivers/STM32F3xx_HAL_Driver/Inc/stm32f3xx_ll_exti.h **** #define LL_EXTI_LINE_32                EXTI_IMR2_IM32          /*!< Extended line 32 */
 153:Drivers/STM32F3xx_HAL_Driver/Inc/stm32f3xx_ll_exti.h **** #if defined(EXTI_IMR2_IM33)
 154:Drivers/STM32F3xx_HAL_Driver/Inc/stm32f3xx_ll_exti.h **** #define LL_EXTI_LINE_33                EXTI_IMR2_IM33          /*!< Extended line 33 */
 155:Drivers/STM32F3xx_HAL_Driver/Inc/stm32f3xx_ll_exti.h **** #endif
 156:Drivers/STM32F3xx_HAL_Driver/Inc/stm32f3xx_ll_exti.h **** #if defined(EXTI_IMR2_IM34)
 157:Drivers/STM32F3xx_HAL_Driver/Inc/stm32f3xx_ll_exti.h **** #define LL_EXTI_LINE_34                EXTI_IMR2_IM34          /*!< Extended line 34 */
 158:Drivers/STM32F3xx_HAL_Driver/Inc/stm32f3xx_ll_exti.h **** #endif
 159:Drivers/STM32F3xx_HAL_Driver/Inc/stm32f3xx_ll_exti.h **** #if defined(EXTI_IMR2_IM35)
 160:Drivers/STM32F3xx_HAL_Driver/Inc/stm32f3xx_ll_exti.h **** #define LL_EXTI_LINE_35                EXTI_IMR2_IM35          /*!< Extended line 35 */
 161:Drivers/STM32F3xx_HAL_Driver/Inc/stm32f3xx_ll_exti.h **** #endif
 162:Drivers/STM32F3xx_HAL_Driver/Inc/stm32f3xx_ll_exti.h **** #if defined(EXTI_IMR2_IM36)
 163:Drivers/STM32F3xx_HAL_Driver/Inc/stm32f3xx_ll_exti.h **** #define LL_EXTI_LINE_36                EXTI_IMR2_IM36          /*!< Extended line 36 */
 164:Drivers/STM32F3xx_HAL_Driver/Inc/stm32f3xx_ll_exti.h **** #endif
 165:Drivers/STM32F3xx_HAL_Driver/Inc/stm32f3xx_ll_exti.h **** #if defined(EXTI_IMR2_IM37)
 166:Drivers/STM32F3xx_HAL_Driver/Inc/stm32f3xx_ll_exti.h **** #define LL_EXTI_LINE_37                EXTI_IMR2_IM37          /*!< Extended line 37 */
 167:Drivers/STM32F3xx_HAL_Driver/Inc/stm32f3xx_ll_exti.h **** #endif
 168:Drivers/STM32F3xx_HAL_Driver/Inc/stm32f3xx_ll_exti.h **** #if defined(EXTI_IMR2_IM38)
 169:Drivers/STM32F3xx_HAL_Driver/Inc/stm32f3xx_ll_exti.h **** #define LL_EXTI_LINE_38                EXTI_IMR2_IM38          /*!< Extended line 38 */
 170:Drivers/STM32F3xx_HAL_Driver/Inc/stm32f3xx_ll_exti.h **** #endif
 171:Drivers/STM32F3xx_HAL_Driver/Inc/stm32f3xx_ll_exti.h **** #if defined(EXTI_IMR2_IM39)
 172:Drivers/STM32F3xx_HAL_Driver/Inc/stm32f3xx_ll_exti.h **** #define LL_EXTI_LINE_39                EXTI_IMR2_IM39          /*!< Extended line 39 */
 173:Drivers/STM32F3xx_HAL_Driver/Inc/stm32f3xx_ll_exti.h **** #endif
 174:Drivers/STM32F3xx_HAL_Driver/Inc/stm32f3xx_ll_exti.h **** #if defined(EXTI_IMR2_IM40)
 175:Drivers/STM32F3xx_HAL_Driver/Inc/stm32f3xx_ll_exti.h **** #define LL_EXTI_LINE_40                EXTI_IMR2_IM40          /*!< Extended line 40 */
 176:Drivers/STM32F3xx_HAL_Driver/Inc/stm32f3xx_ll_exti.h **** #endif
 177:Drivers/STM32F3xx_HAL_Driver/Inc/stm32f3xx_ll_exti.h **** #define LL_EXTI_LINE_ALL_32_63         EXTI_IMR2_IM            /*!< All Extended line not reserved*
 178:Drivers/STM32F3xx_HAL_Driver/Inc/stm32f3xx_ll_exti.h **** 
 179:Drivers/STM32F3xx_HAL_Driver/Inc/stm32f3xx_ll_exti.h **** #endif
 180:Drivers/STM32F3xx_HAL_Driver/Inc/stm32f3xx_ll_exti.h **** 
 181:Drivers/STM32F3xx_HAL_Driver/Inc/stm32f3xx_ll_exti.h **** #define LL_EXTI_LINE_ALL               (0xFFFFFFFFU)  /*!< All Extended line */
ARM GAS  /tmp/ccc7EsBH.s 			page 9


 182:Drivers/STM32F3xx_HAL_Driver/Inc/stm32f3xx_ll_exti.h **** 
 183:Drivers/STM32F3xx_HAL_Driver/Inc/stm32f3xx_ll_exti.h **** #if defined(USE_FULL_LL_DRIVER)
 184:Drivers/STM32F3xx_HAL_Driver/Inc/stm32f3xx_ll_exti.h **** #define LL_EXTI_LINE_NONE              (0x00000000U)  /*!< None Extended line */
 185:Drivers/STM32F3xx_HAL_Driver/Inc/stm32f3xx_ll_exti.h **** #endif /*USE_FULL_LL_DRIVER*/
 186:Drivers/STM32F3xx_HAL_Driver/Inc/stm32f3xx_ll_exti.h **** 
 187:Drivers/STM32F3xx_HAL_Driver/Inc/stm32f3xx_ll_exti.h **** /**
 188:Drivers/STM32F3xx_HAL_Driver/Inc/stm32f3xx_ll_exti.h ****   * @}
 189:Drivers/STM32F3xx_HAL_Driver/Inc/stm32f3xx_ll_exti.h ****   */
 190:Drivers/STM32F3xx_HAL_Driver/Inc/stm32f3xx_ll_exti.h **** #if defined(USE_FULL_LL_DRIVER)
 191:Drivers/STM32F3xx_HAL_Driver/Inc/stm32f3xx_ll_exti.h **** 
 192:Drivers/STM32F3xx_HAL_Driver/Inc/stm32f3xx_ll_exti.h **** /** @defgroup EXTI_LL_EC_MODE Mode
 193:Drivers/STM32F3xx_HAL_Driver/Inc/stm32f3xx_ll_exti.h ****   * @{
 194:Drivers/STM32F3xx_HAL_Driver/Inc/stm32f3xx_ll_exti.h ****   */
 195:Drivers/STM32F3xx_HAL_Driver/Inc/stm32f3xx_ll_exti.h **** #define LL_EXTI_MODE_IT                 ((uint8_t)0x00U) /*!< Interrupt Mode */
 196:Drivers/STM32F3xx_HAL_Driver/Inc/stm32f3xx_ll_exti.h **** #define LL_EXTI_MODE_EVENT              ((uint8_t)0x01U) /*!< Event Mode */
 197:Drivers/STM32F3xx_HAL_Driver/Inc/stm32f3xx_ll_exti.h **** #define LL_EXTI_MODE_IT_EVENT           ((uint8_t)0x02U) /*!< Interrupt & Event Mode */
 198:Drivers/STM32F3xx_HAL_Driver/Inc/stm32f3xx_ll_exti.h **** /**
 199:Drivers/STM32F3xx_HAL_Driver/Inc/stm32f3xx_ll_exti.h ****   * @}
 200:Drivers/STM32F3xx_HAL_Driver/Inc/stm32f3xx_ll_exti.h ****   */
 201:Drivers/STM32F3xx_HAL_Driver/Inc/stm32f3xx_ll_exti.h **** 
 202:Drivers/STM32F3xx_HAL_Driver/Inc/stm32f3xx_ll_exti.h **** /** @defgroup EXTI_LL_EC_TRIGGER Edge Trigger
 203:Drivers/STM32F3xx_HAL_Driver/Inc/stm32f3xx_ll_exti.h ****   * @{
 204:Drivers/STM32F3xx_HAL_Driver/Inc/stm32f3xx_ll_exti.h ****   */
 205:Drivers/STM32F3xx_HAL_Driver/Inc/stm32f3xx_ll_exti.h **** #define LL_EXTI_TRIGGER_NONE            ((uint8_t)0x00U) /*!< No Trigger Mode */
 206:Drivers/STM32F3xx_HAL_Driver/Inc/stm32f3xx_ll_exti.h **** #define LL_EXTI_TRIGGER_RISING          ((uint8_t)0x01U) /*!< Trigger Rising Mode */
 207:Drivers/STM32F3xx_HAL_Driver/Inc/stm32f3xx_ll_exti.h **** #define LL_EXTI_TRIGGER_FALLING         ((uint8_t)0x02U) /*!< Trigger Falling Mode */
 208:Drivers/STM32F3xx_HAL_Driver/Inc/stm32f3xx_ll_exti.h **** #define LL_EXTI_TRIGGER_RISING_FALLING  ((uint8_t)0x03U) /*!< Trigger Rising & Falling Mode */
 209:Drivers/STM32F3xx_HAL_Driver/Inc/stm32f3xx_ll_exti.h **** 
 210:Drivers/STM32F3xx_HAL_Driver/Inc/stm32f3xx_ll_exti.h **** /**
 211:Drivers/STM32F3xx_HAL_Driver/Inc/stm32f3xx_ll_exti.h ****   * @}
 212:Drivers/STM32F3xx_HAL_Driver/Inc/stm32f3xx_ll_exti.h ****   */
 213:Drivers/STM32F3xx_HAL_Driver/Inc/stm32f3xx_ll_exti.h **** 
 214:Drivers/STM32F3xx_HAL_Driver/Inc/stm32f3xx_ll_exti.h **** 
 215:Drivers/STM32F3xx_HAL_Driver/Inc/stm32f3xx_ll_exti.h **** #endif /*USE_FULL_LL_DRIVER*/
 216:Drivers/STM32F3xx_HAL_Driver/Inc/stm32f3xx_ll_exti.h **** 
 217:Drivers/STM32F3xx_HAL_Driver/Inc/stm32f3xx_ll_exti.h **** 
 218:Drivers/STM32F3xx_HAL_Driver/Inc/stm32f3xx_ll_exti.h **** /**
 219:Drivers/STM32F3xx_HAL_Driver/Inc/stm32f3xx_ll_exti.h ****   * @}
 220:Drivers/STM32F3xx_HAL_Driver/Inc/stm32f3xx_ll_exti.h ****   */
 221:Drivers/STM32F3xx_HAL_Driver/Inc/stm32f3xx_ll_exti.h **** 
 222:Drivers/STM32F3xx_HAL_Driver/Inc/stm32f3xx_ll_exti.h **** /* Exported macro ------------------------------------------------------------*/
 223:Drivers/STM32F3xx_HAL_Driver/Inc/stm32f3xx_ll_exti.h **** /** @defgroup EXTI_LL_Exported_Macros EXTI Exported Macros
 224:Drivers/STM32F3xx_HAL_Driver/Inc/stm32f3xx_ll_exti.h ****   * @{
 225:Drivers/STM32F3xx_HAL_Driver/Inc/stm32f3xx_ll_exti.h ****   */
 226:Drivers/STM32F3xx_HAL_Driver/Inc/stm32f3xx_ll_exti.h **** 
 227:Drivers/STM32F3xx_HAL_Driver/Inc/stm32f3xx_ll_exti.h **** /** @defgroup EXTI_LL_EM_WRITE_READ Common Write and read registers Macros
 228:Drivers/STM32F3xx_HAL_Driver/Inc/stm32f3xx_ll_exti.h ****   * @{
 229:Drivers/STM32F3xx_HAL_Driver/Inc/stm32f3xx_ll_exti.h ****   */
 230:Drivers/STM32F3xx_HAL_Driver/Inc/stm32f3xx_ll_exti.h **** 
 231:Drivers/STM32F3xx_HAL_Driver/Inc/stm32f3xx_ll_exti.h **** /**
 232:Drivers/STM32F3xx_HAL_Driver/Inc/stm32f3xx_ll_exti.h ****   * @brief  Write a value in EXTI register
 233:Drivers/STM32F3xx_HAL_Driver/Inc/stm32f3xx_ll_exti.h ****   * @param  __REG__ Register to be written
 234:Drivers/STM32F3xx_HAL_Driver/Inc/stm32f3xx_ll_exti.h ****   * @param  __VALUE__ Value to be written in the register
 235:Drivers/STM32F3xx_HAL_Driver/Inc/stm32f3xx_ll_exti.h ****   * @retval None
 236:Drivers/STM32F3xx_HAL_Driver/Inc/stm32f3xx_ll_exti.h ****   */
 237:Drivers/STM32F3xx_HAL_Driver/Inc/stm32f3xx_ll_exti.h **** #define LL_EXTI_WriteReg(__REG__, __VALUE__) WRITE_REG(EXTI->__REG__, (__VALUE__))
 238:Drivers/STM32F3xx_HAL_Driver/Inc/stm32f3xx_ll_exti.h **** 
ARM GAS  /tmp/ccc7EsBH.s 			page 10


 239:Drivers/STM32F3xx_HAL_Driver/Inc/stm32f3xx_ll_exti.h **** /**
 240:Drivers/STM32F3xx_HAL_Driver/Inc/stm32f3xx_ll_exti.h ****   * @brief  Read a value in EXTI register
 241:Drivers/STM32F3xx_HAL_Driver/Inc/stm32f3xx_ll_exti.h ****   * @param  __REG__ Register to be read
 242:Drivers/STM32F3xx_HAL_Driver/Inc/stm32f3xx_ll_exti.h ****   * @retval Register value
 243:Drivers/STM32F3xx_HAL_Driver/Inc/stm32f3xx_ll_exti.h ****   */
 244:Drivers/STM32F3xx_HAL_Driver/Inc/stm32f3xx_ll_exti.h **** #define LL_EXTI_ReadReg(__REG__) READ_REG(EXTI->__REG__)
 245:Drivers/STM32F3xx_HAL_Driver/Inc/stm32f3xx_ll_exti.h **** /**
 246:Drivers/STM32F3xx_HAL_Driver/Inc/stm32f3xx_ll_exti.h ****   * @}
 247:Drivers/STM32F3xx_HAL_Driver/Inc/stm32f3xx_ll_exti.h ****   */
 248:Drivers/STM32F3xx_HAL_Driver/Inc/stm32f3xx_ll_exti.h **** 
 249:Drivers/STM32F3xx_HAL_Driver/Inc/stm32f3xx_ll_exti.h **** 
 250:Drivers/STM32F3xx_HAL_Driver/Inc/stm32f3xx_ll_exti.h **** /**
 251:Drivers/STM32F3xx_HAL_Driver/Inc/stm32f3xx_ll_exti.h ****   * @}
 252:Drivers/STM32F3xx_HAL_Driver/Inc/stm32f3xx_ll_exti.h ****   */
 253:Drivers/STM32F3xx_HAL_Driver/Inc/stm32f3xx_ll_exti.h **** 
 254:Drivers/STM32F3xx_HAL_Driver/Inc/stm32f3xx_ll_exti.h **** 
 255:Drivers/STM32F3xx_HAL_Driver/Inc/stm32f3xx_ll_exti.h **** 
 256:Drivers/STM32F3xx_HAL_Driver/Inc/stm32f3xx_ll_exti.h **** /* Exported functions --------------------------------------------------------*/
 257:Drivers/STM32F3xx_HAL_Driver/Inc/stm32f3xx_ll_exti.h **** /** @defgroup EXTI_LL_Exported_Functions EXTI Exported Functions
 258:Drivers/STM32F3xx_HAL_Driver/Inc/stm32f3xx_ll_exti.h ****  * @{
 259:Drivers/STM32F3xx_HAL_Driver/Inc/stm32f3xx_ll_exti.h ****  */
 260:Drivers/STM32F3xx_HAL_Driver/Inc/stm32f3xx_ll_exti.h **** /** @defgroup EXTI_LL_EF_IT_Management IT_Management
 261:Drivers/STM32F3xx_HAL_Driver/Inc/stm32f3xx_ll_exti.h ****   * @{
 262:Drivers/STM32F3xx_HAL_Driver/Inc/stm32f3xx_ll_exti.h ****   */
 263:Drivers/STM32F3xx_HAL_Driver/Inc/stm32f3xx_ll_exti.h **** 
 264:Drivers/STM32F3xx_HAL_Driver/Inc/stm32f3xx_ll_exti.h **** /**
 265:Drivers/STM32F3xx_HAL_Driver/Inc/stm32f3xx_ll_exti.h ****   * @brief  Enable ExtiLine Interrupt request for Lines in range 0 to 31
 266:Drivers/STM32F3xx_HAL_Driver/Inc/stm32f3xx_ll_exti.h ****   * @note The reset value for the direct or internal lines (see RM)
 267:Drivers/STM32F3xx_HAL_Driver/Inc/stm32f3xx_ll_exti.h ****   *       is set to 1 in order to enable the interrupt by default.
 268:Drivers/STM32F3xx_HAL_Driver/Inc/stm32f3xx_ll_exti.h ****   *       Bits are set automatically at Power on.
 269:Drivers/STM32F3xx_HAL_Driver/Inc/stm32f3xx_ll_exti.h ****   * @rmtoll IMR         IMx           LL_EXTI_EnableIT_0_31
 270:Drivers/STM32F3xx_HAL_Driver/Inc/stm32f3xx_ll_exti.h ****   * @param  ExtiLine This parameter can be one of the following values:
 271:Drivers/STM32F3xx_HAL_Driver/Inc/stm32f3xx_ll_exti.h ****   *         @arg @ref LL_EXTI_LINE_0
 272:Drivers/STM32F3xx_HAL_Driver/Inc/stm32f3xx_ll_exti.h ****   *         @arg @ref LL_EXTI_LINE_1
 273:Drivers/STM32F3xx_HAL_Driver/Inc/stm32f3xx_ll_exti.h ****   *         @arg @ref LL_EXTI_LINE_2
 274:Drivers/STM32F3xx_HAL_Driver/Inc/stm32f3xx_ll_exti.h ****   *         @arg @ref LL_EXTI_LINE_3
 275:Drivers/STM32F3xx_HAL_Driver/Inc/stm32f3xx_ll_exti.h ****   *         @arg @ref LL_EXTI_LINE_4
 276:Drivers/STM32F3xx_HAL_Driver/Inc/stm32f3xx_ll_exti.h ****   *         @arg @ref LL_EXTI_LINE_5
 277:Drivers/STM32F3xx_HAL_Driver/Inc/stm32f3xx_ll_exti.h ****   *         @arg @ref LL_EXTI_LINE_6
 278:Drivers/STM32F3xx_HAL_Driver/Inc/stm32f3xx_ll_exti.h ****   *         @arg @ref LL_EXTI_LINE_7
 279:Drivers/STM32F3xx_HAL_Driver/Inc/stm32f3xx_ll_exti.h ****   *         @arg @ref LL_EXTI_LINE_8
 280:Drivers/STM32F3xx_HAL_Driver/Inc/stm32f3xx_ll_exti.h ****   *         @arg @ref LL_EXTI_LINE_9
 281:Drivers/STM32F3xx_HAL_Driver/Inc/stm32f3xx_ll_exti.h ****   *         @arg @ref LL_EXTI_LINE_10
 282:Drivers/STM32F3xx_HAL_Driver/Inc/stm32f3xx_ll_exti.h ****   *         @arg @ref LL_EXTI_LINE_11
 283:Drivers/STM32F3xx_HAL_Driver/Inc/stm32f3xx_ll_exti.h ****   *         @arg @ref LL_EXTI_LINE_12
 284:Drivers/STM32F3xx_HAL_Driver/Inc/stm32f3xx_ll_exti.h ****   *         @arg @ref LL_EXTI_LINE_13
 285:Drivers/STM32F3xx_HAL_Driver/Inc/stm32f3xx_ll_exti.h ****   *         @arg @ref LL_EXTI_LINE_14
 286:Drivers/STM32F3xx_HAL_Driver/Inc/stm32f3xx_ll_exti.h ****   *         @arg @ref LL_EXTI_LINE_15
 287:Drivers/STM32F3xx_HAL_Driver/Inc/stm32f3xx_ll_exti.h ****   *         @arg @ref LL_EXTI_LINE_16
 288:Drivers/STM32F3xx_HAL_Driver/Inc/stm32f3xx_ll_exti.h ****   *         @arg @ref LL_EXTI_LINE_17
 289:Drivers/STM32F3xx_HAL_Driver/Inc/stm32f3xx_ll_exti.h ****   *         @arg @ref LL_EXTI_LINE_18
 290:Drivers/STM32F3xx_HAL_Driver/Inc/stm32f3xx_ll_exti.h ****   *         @arg @ref LL_EXTI_LINE_19
 291:Drivers/STM32F3xx_HAL_Driver/Inc/stm32f3xx_ll_exti.h ****   *         @arg @ref LL_EXTI_LINE_20
 292:Drivers/STM32F3xx_HAL_Driver/Inc/stm32f3xx_ll_exti.h ****   *         @arg @ref LL_EXTI_LINE_21
 293:Drivers/STM32F3xx_HAL_Driver/Inc/stm32f3xx_ll_exti.h ****   *         @arg @ref LL_EXTI_LINE_22
 294:Drivers/STM32F3xx_HAL_Driver/Inc/stm32f3xx_ll_exti.h ****   *         @arg @ref LL_EXTI_LINE_23
 295:Drivers/STM32F3xx_HAL_Driver/Inc/stm32f3xx_ll_exti.h ****   *         @arg @ref LL_EXTI_LINE_24
ARM GAS  /tmp/ccc7EsBH.s 			page 11


 296:Drivers/STM32F3xx_HAL_Driver/Inc/stm32f3xx_ll_exti.h ****   *         @arg @ref LL_EXTI_LINE_25
 297:Drivers/STM32F3xx_HAL_Driver/Inc/stm32f3xx_ll_exti.h ****   *         @arg @ref LL_EXTI_LINE_26
 298:Drivers/STM32F3xx_HAL_Driver/Inc/stm32f3xx_ll_exti.h ****   *         @arg @ref LL_EXTI_LINE_27
 299:Drivers/STM32F3xx_HAL_Driver/Inc/stm32f3xx_ll_exti.h ****   *         @arg @ref LL_EXTI_LINE_28
 300:Drivers/STM32F3xx_HAL_Driver/Inc/stm32f3xx_ll_exti.h ****   *         @arg @ref LL_EXTI_LINE_29
 301:Drivers/STM32F3xx_HAL_Driver/Inc/stm32f3xx_ll_exti.h ****   *         @arg @ref LL_EXTI_LINE_30
 302:Drivers/STM32F3xx_HAL_Driver/Inc/stm32f3xx_ll_exti.h ****   *         @arg @ref LL_EXTI_LINE_31
 303:Drivers/STM32F3xx_HAL_Driver/Inc/stm32f3xx_ll_exti.h ****   *         @arg @ref LL_EXTI_LINE_ALL_0_31
 304:Drivers/STM32F3xx_HAL_Driver/Inc/stm32f3xx_ll_exti.h ****   * @note   Please check each device line mapping for EXTI Line availability
 305:Drivers/STM32F3xx_HAL_Driver/Inc/stm32f3xx_ll_exti.h ****   * @retval None
 306:Drivers/STM32F3xx_HAL_Driver/Inc/stm32f3xx_ll_exti.h ****   */
 307:Drivers/STM32F3xx_HAL_Driver/Inc/stm32f3xx_ll_exti.h **** __STATIC_INLINE void LL_EXTI_EnableIT_0_31(uint32_t ExtiLine)
 308:Drivers/STM32F3xx_HAL_Driver/Inc/stm32f3xx_ll_exti.h **** {
 309:Drivers/STM32F3xx_HAL_Driver/Inc/stm32f3xx_ll_exti.h ****   SET_BIT(EXTI->IMR, ExtiLine);
 310:Drivers/STM32F3xx_HAL_Driver/Inc/stm32f3xx_ll_exti.h **** }
 311:Drivers/STM32F3xx_HAL_Driver/Inc/stm32f3xx_ll_exti.h **** #if defined(EXTI_32_63_SUPPORT)
 312:Drivers/STM32F3xx_HAL_Driver/Inc/stm32f3xx_ll_exti.h **** /**
 313:Drivers/STM32F3xx_HAL_Driver/Inc/stm32f3xx_ll_exti.h ****   * @brief  Enable ExtiLine Interrupt request for Lines in range 32 to 63
 314:Drivers/STM32F3xx_HAL_Driver/Inc/stm32f3xx_ll_exti.h ****   * @note The reset value for the direct lines (lines from 32 to 34, line
 315:Drivers/STM32F3xx_HAL_Driver/Inc/stm32f3xx_ll_exti.h ****   *       39) is set to 1 in order to enable the interrupt by default.
 316:Drivers/STM32F3xx_HAL_Driver/Inc/stm32f3xx_ll_exti.h ****   *       Bits are set automatically at Power on.
 317:Drivers/STM32F3xx_HAL_Driver/Inc/stm32f3xx_ll_exti.h ****   * @rmtoll IMR2         IMx           LL_EXTI_EnableIT_32_63
 318:Drivers/STM32F3xx_HAL_Driver/Inc/stm32f3xx_ll_exti.h ****   * @param  ExtiLine This parameter can be one of the following values:
 319:Drivers/STM32F3xx_HAL_Driver/Inc/stm32f3xx_ll_exti.h ****   *         @arg @ref LL_EXTI_LINE_32
 320:Drivers/STM32F3xx_HAL_Driver/Inc/stm32f3xx_ll_exti.h ****   *         @arg @ref LL_EXTI_LINE_33
 321:Drivers/STM32F3xx_HAL_Driver/Inc/stm32f3xx_ll_exti.h ****   *         @arg @ref LL_EXTI_LINE_34
 322:Drivers/STM32F3xx_HAL_Driver/Inc/stm32f3xx_ll_exti.h ****   *         @arg @ref LL_EXTI_LINE_35
 323:Drivers/STM32F3xx_HAL_Driver/Inc/stm32f3xx_ll_exti.h ****   *         @arg @ref LL_EXTI_LINE_36
 324:Drivers/STM32F3xx_HAL_Driver/Inc/stm32f3xx_ll_exti.h ****   *         @arg @ref LL_EXTI_LINE_37
 325:Drivers/STM32F3xx_HAL_Driver/Inc/stm32f3xx_ll_exti.h ****   *         @arg @ref LL_EXTI_LINE_38
 326:Drivers/STM32F3xx_HAL_Driver/Inc/stm32f3xx_ll_exti.h ****   *         @arg @ref LL_EXTI_LINE_39
 327:Drivers/STM32F3xx_HAL_Driver/Inc/stm32f3xx_ll_exti.h ****   *         @arg @ref LL_EXTI_LINE_ALL_32_63
 328:Drivers/STM32F3xx_HAL_Driver/Inc/stm32f3xx_ll_exti.h ****   * @retval None
 329:Drivers/STM32F3xx_HAL_Driver/Inc/stm32f3xx_ll_exti.h ****   */
 330:Drivers/STM32F3xx_HAL_Driver/Inc/stm32f3xx_ll_exti.h **** __STATIC_INLINE void LL_EXTI_EnableIT_32_63(uint32_t ExtiLine)
 331:Drivers/STM32F3xx_HAL_Driver/Inc/stm32f3xx_ll_exti.h **** {
 332:Drivers/STM32F3xx_HAL_Driver/Inc/stm32f3xx_ll_exti.h ****   SET_BIT(EXTI->IMR2, ExtiLine);
 333:Drivers/STM32F3xx_HAL_Driver/Inc/stm32f3xx_ll_exti.h **** }
 334:Drivers/STM32F3xx_HAL_Driver/Inc/stm32f3xx_ll_exti.h **** #endif
 335:Drivers/STM32F3xx_HAL_Driver/Inc/stm32f3xx_ll_exti.h **** 
 336:Drivers/STM32F3xx_HAL_Driver/Inc/stm32f3xx_ll_exti.h **** /**
 337:Drivers/STM32F3xx_HAL_Driver/Inc/stm32f3xx_ll_exti.h ****   * @brief  Disable ExtiLine Interrupt request for Lines in range 0 to 31
 338:Drivers/STM32F3xx_HAL_Driver/Inc/stm32f3xx_ll_exti.h ****   * @note The reset value for the direct or internal lines (see RM)
 339:Drivers/STM32F3xx_HAL_Driver/Inc/stm32f3xx_ll_exti.h ****   *       is set to 1 in order to enable the interrupt by default.
 340:Drivers/STM32F3xx_HAL_Driver/Inc/stm32f3xx_ll_exti.h ****   *       Bits are set automatically at Power on.
 341:Drivers/STM32F3xx_HAL_Driver/Inc/stm32f3xx_ll_exti.h ****   * @rmtoll IMR         IMx           LL_EXTI_DisableIT_0_31
 342:Drivers/STM32F3xx_HAL_Driver/Inc/stm32f3xx_ll_exti.h ****   * @param  ExtiLine This parameter can be one of the following values:
 343:Drivers/STM32F3xx_HAL_Driver/Inc/stm32f3xx_ll_exti.h ****   *         @arg @ref LL_EXTI_LINE_0
 344:Drivers/STM32F3xx_HAL_Driver/Inc/stm32f3xx_ll_exti.h ****   *         @arg @ref LL_EXTI_LINE_1
 345:Drivers/STM32F3xx_HAL_Driver/Inc/stm32f3xx_ll_exti.h ****   *         @arg @ref LL_EXTI_LINE_2
 346:Drivers/STM32F3xx_HAL_Driver/Inc/stm32f3xx_ll_exti.h ****   *         @arg @ref LL_EXTI_LINE_3
 347:Drivers/STM32F3xx_HAL_Driver/Inc/stm32f3xx_ll_exti.h ****   *         @arg @ref LL_EXTI_LINE_4
 348:Drivers/STM32F3xx_HAL_Driver/Inc/stm32f3xx_ll_exti.h ****   *         @arg @ref LL_EXTI_LINE_5
 349:Drivers/STM32F3xx_HAL_Driver/Inc/stm32f3xx_ll_exti.h ****   *         @arg @ref LL_EXTI_LINE_6
 350:Drivers/STM32F3xx_HAL_Driver/Inc/stm32f3xx_ll_exti.h ****   *         @arg @ref LL_EXTI_LINE_7
 351:Drivers/STM32F3xx_HAL_Driver/Inc/stm32f3xx_ll_exti.h ****   *         @arg @ref LL_EXTI_LINE_8
 352:Drivers/STM32F3xx_HAL_Driver/Inc/stm32f3xx_ll_exti.h ****   *         @arg @ref LL_EXTI_LINE_9
ARM GAS  /tmp/ccc7EsBH.s 			page 12


 353:Drivers/STM32F3xx_HAL_Driver/Inc/stm32f3xx_ll_exti.h ****   *         @arg @ref LL_EXTI_LINE_10
 354:Drivers/STM32F3xx_HAL_Driver/Inc/stm32f3xx_ll_exti.h ****   *         @arg @ref LL_EXTI_LINE_11
 355:Drivers/STM32F3xx_HAL_Driver/Inc/stm32f3xx_ll_exti.h ****   *         @arg @ref LL_EXTI_LINE_12
 356:Drivers/STM32F3xx_HAL_Driver/Inc/stm32f3xx_ll_exti.h ****   *         @arg @ref LL_EXTI_LINE_13
 357:Drivers/STM32F3xx_HAL_Driver/Inc/stm32f3xx_ll_exti.h ****   *         @arg @ref LL_EXTI_LINE_14
 358:Drivers/STM32F3xx_HAL_Driver/Inc/stm32f3xx_ll_exti.h ****   *         @arg @ref LL_EXTI_LINE_15
 359:Drivers/STM32F3xx_HAL_Driver/Inc/stm32f3xx_ll_exti.h ****   *         @arg @ref LL_EXTI_LINE_16
 360:Drivers/STM32F3xx_HAL_Driver/Inc/stm32f3xx_ll_exti.h ****   *         @arg @ref LL_EXTI_LINE_17
 361:Drivers/STM32F3xx_HAL_Driver/Inc/stm32f3xx_ll_exti.h ****   *         @arg @ref LL_EXTI_LINE_18
 362:Drivers/STM32F3xx_HAL_Driver/Inc/stm32f3xx_ll_exti.h ****   *         @arg @ref LL_EXTI_LINE_19
 363:Drivers/STM32F3xx_HAL_Driver/Inc/stm32f3xx_ll_exti.h ****   *         @arg @ref LL_EXTI_LINE_20
 364:Drivers/STM32F3xx_HAL_Driver/Inc/stm32f3xx_ll_exti.h ****   *         @arg @ref LL_EXTI_LINE_21
 365:Drivers/STM32F3xx_HAL_Driver/Inc/stm32f3xx_ll_exti.h ****   *         @arg @ref LL_EXTI_LINE_22
 366:Drivers/STM32F3xx_HAL_Driver/Inc/stm32f3xx_ll_exti.h ****   *         @arg @ref LL_EXTI_LINE_23
 367:Drivers/STM32F3xx_HAL_Driver/Inc/stm32f3xx_ll_exti.h ****   *         @arg @ref LL_EXTI_LINE_24
 368:Drivers/STM32F3xx_HAL_Driver/Inc/stm32f3xx_ll_exti.h ****   *         @arg @ref LL_EXTI_LINE_25
 369:Drivers/STM32F3xx_HAL_Driver/Inc/stm32f3xx_ll_exti.h ****   *         @arg @ref LL_EXTI_LINE_26
 370:Drivers/STM32F3xx_HAL_Driver/Inc/stm32f3xx_ll_exti.h ****   *         @arg @ref LL_EXTI_LINE_27
 371:Drivers/STM32F3xx_HAL_Driver/Inc/stm32f3xx_ll_exti.h ****   *         @arg @ref LL_EXTI_LINE_28
 372:Drivers/STM32F3xx_HAL_Driver/Inc/stm32f3xx_ll_exti.h ****   *         @arg @ref LL_EXTI_LINE_29
 373:Drivers/STM32F3xx_HAL_Driver/Inc/stm32f3xx_ll_exti.h ****   *         @arg @ref LL_EXTI_LINE_30
 374:Drivers/STM32F3xx_HAL_Driver/Inc/stm32f3xx_ll_exti.h ****   *         @arg @ref LL_EXTI_LINE_31
 375:Drivers/STM32F3xx_HAL_Driver/Inc/stm32f3xx_ll_exti.h ****   *         @arg @ref LL_EXTI_LINE_ALL_0_31
 376:Drivers/STM32F3xx_HAL_Driver/Inc/stm32f3xx_ll_exti.h ****   * @note   Please check each device line mapping for EXTI Line availability
 377:Drivers/STM32F3xx_HAL_Driver/Inc/stm32f3xx_ll_exti.h ****   * @retval None
 378:Drivers/STM32F3xx_HAL_Driver/Inc/stm32f3xx_ll_exti.h ****   */
 379:Drivers/STM32F3xx_HAL_Driver/Inc/stm32f3xx_ll_exti.h **** __STATIC_INLINE void LL_EXTI_DisableIT_0_31(uint32_t ExtiLine)
 380:Drivers/STM32F3xx_HAL_Driver/Inc/stm32f3xx_ll_exti.h **** {
 381:Drivers/STM32F3xx_HAL_Driver/Inc/stm32f3xx_ll_exti.h ****   CLEAR_BIT(EXTI->IMR, ExtiLine);
 382:Drivers/STM32F3xx_HAL_Driver/Inc/stm32f3xx_ll_exti.h **** }
 383:Drivers/STM32F3xx_HAL_Driver/Inc/stm32f3xx_ll_exti.h **** 
 384:Drivers/STM32F3xx_HAL_Driver/Inc/stm32f3xx_ll_exti.h **** #if defined(EXTI_32_63_SUPPORT)
 385:Drivers/STM32F3xx_HAL_Driver/Inc/stm32f3xx_ll_exti.h **** /**
 386:Drivers/STM32F3xx_HAL_Driver/Inc/stm32f3xx_ll_exti.h ****   * @brief  Disable ExtiLine Interrupt request for Lines in range 32 to 63
 387:Drivers/STM32F3xx_HAL_Driver/Inc/stm32f3xx_ll_exti.h ****   * @note The reset value for the direct lines (lines from 32 to 34, line
 388:Drivers/STM32F3xx_HAL_Driver/Inc/stm32f3xx_ll_exti.h ****   *       39) is set to 1 in order to enable the interrupt by default.
 389:Drivers/STM32F3xx_HAL_Driver/Inc/stm32f3xx_ll_exti.h ****   *       Bits are set automatically at Power on.
 390:Drivers/STM32F3xx_HAL_Driver/Inc/stm32f3xx_ll_exti.h ****   * @rmtoll IMR2         IMx           LL_EXTI_DisableIT_32_63
 391:Drivers/STM32F3xx_HAL_Driver/Inc/stm32f3xx_ll_exti.h ****   * @param  ExtiLine This parameter can be one of the following values:
 392:Drivers/STM32F3xx_HAL_Driver/Inc/stm32f3xx_ll_exti.h ****   *         @arg @ref LL_EXTI_LINE_32
 393:Drivers/STM32F3xx_HAL_Driver/Inc/stm32f3xx_ll_exti.h ****   *         @arg @ref LL_EXTI_LINE_33
 394:Drivers/STM32F3xx_HAL_Driver/Inc/stm32f3xx_ll_exti.h ****   *         @arg @ref LL_EXTI_LINE_34
 395:Drivers/STM32F3xx_HAL_Driver/Inc/stm32f3xx_ll_exti.h ****   *         @arg @ref LL_EXTI_LINE_35
 396:Drivers/STM32F3xx_HAL_Driver/Inc/stm32f3xx_ll_exti.h ****   *         @arg @ref LL_EXTI_LINE_36
 397:Drivers/STM32F3xx_HAL_Driver/Inc/stm32f3xx_ll_exti.h ****   *         @arg @ref LL_EXTI_LINE_37
 398:Drivers/STM32F3xx_HAL_Driver/Inc/stm32f3xx_ll_exti.h ****   *         @arg @ref LL_EXTI_LINE_38
 399:Drivers/STM32F3xx_HAL_Driver/Inc/stm32f3xx_ll_exti.h ****   *         @arg @ref LL_EXTI_LINE_39
 400:Drivers/STM32F3xx_HAL_Driver/Inc/stm32f3xx_ll_exti.h ****   *         @arg @ref LL_EXTI_LINE_ALL_32_63
 401:Drivers/STM32F3xx_HAL_Driver/Inc/stm32f3xx_ll_exti.h ****   * @retval None
 402:Drivers/STM32F3xx_HAL_Driver/Inc/stm32f3xx_ll_exti.h ****   */
 403:Drivers/STM32F3xx_HAL_Driver/Inc/stm32f3xx_ll_exti.h **** __STATIC_INLINE void LL_EXTI_DisableIT_32_63(uint32_t ExtiLine)
 404:Drivers/STM32F3xx_HAL_Driver/Inc/stm32f3xx_ll_exti.h **** {
 405:Drivers/STM32F3xx_HAL_Driver/Inc/stm32f3xx_ll_exti.h ****   CLEAR_BIT(EXTI->IMR2, ExtiLine);
 406:Drivers/STM32F3xx_HAL_Driver/Inc/stm32f3xx_ll_exti.h **** }
 407:Drivers/STM32F3xx_HAL_Driver/Inc/stm32f3xx_ll_exti.h **** #endif
 408:Drivers/STM32F3xx_HAL_Driver/Inc/stm32f3xx_ll_exti.h **** 
 409:Drivers/STM32F3xx_HAL_Driver/Inc/stm32f3xx_ll_exti.h **** /**
ARM GAS  /tmp/ccc7EsBH.s 			page 13


 410:Drivers/STM32F3xx_HAL_Driver/Inc/stm32f3xx_ll_exti.h ****   * @brief  Indicate if ExtiLine Interrupt request is enabled for Lines in range 0 to 31
 411:Drivers/STM32F3xx_HAL_Driver/Inc/stm32f3xx_ll_exti.h ****   * @note The reset value for the direct or internal lines (see RM)
 412:Drivers/STM32F3xx_HAL_Driver/Inc/stm32f3xx_ll_exti.h ****   *       is set to 1 in order to enable the interrupt by default.
 413:Drivers/STM32F3xx_HAL_Driver/Inc/stm32f3xx_ll_exti.h ****   *       Bits are set automatically at Power on.
 414:Drivers/STM32F3xx_HAL_Driver/Inc/stm32f3xx_ll_exti.h ****   * @rmtoll IMR         IMx           LL_EXTI_IsEnabledIT_0_31
 415:Drivers/STM32F3xx_HAL_Driver/Inc/stm32f3xx_ll_exti.h ****   * @param  ExtiLine This parameter can be one of the following values:
 416:Drivers/STM32F3xx_HAL_Driver/Inc/stm32f3xx_ll_exti.h ****   *         @arg @ref LL_EXTI_LINE_0
 417:Drivers/STM32F3xx_HAL_Driver/Inc/stm32f3xx_ll_exti.h ****   *         @arg @ref LL_EXTI_LINE_1
 418:Drivers/STM32F3xx_HAL_Driver/Inc/stm32f3xx_ll_exti.h ****   *         @arg @ref LL_EXTI_LINE_2
 419:Drivers/STM32F3xx_HAL_Driver/Inc/stm32f3xx_ll_exti.h ****   *         @arg @ref LL_EXTI_LINE_3
 420:Drivers/STM32F3xx_HAL_Driver/Inc/stm32f3xx_ll_exti.h ****   *         @arg @ref LL_EXTI_LINE_4
 421:Drivers/STM32F3xx_HAL_Driver/Inc/stm32f3xx_ll_exti.h ****   *         @arg @ref LL_EXTI_LINE_5
 422:Drivers/STM32F3xx_HAL_Driver/Inc/stm32f3xx_ll_exti.h ****   *         @arg @ref LL_EXTI_LINE_6
 423:Drivers/STM32F3xx_HAL_Driver/Inc/stm32f3xx_ll_exti.h ****   *         @arg @ref LL_EXTI_LINE_7
 424:Drivers/STM32F3xx_HAL_Driver/Inc/stm32f3xx_ll_exti.h ****   *         @arg @ref LL_EXTI_LINE_8
 425:Drivers/STM32F3xx_HAL_Driver/Inc/stm32f3xx_ll_exti.h ****   *         @arg @ref LL_EXTI_LINE_9
 426:Drivers/STM32F3xx_HAL_Driver/Inc/stm32f3xx_ll_exti.h ****   *         @arg @ref LL_EXTI_LINE_10
 427:Drivers/STM32F3xx_HAL_Driver/Inc/stm32f3xx_ll_exti.h ****   *         @arg @ref LL_EXTI_LINE_11
 428:Drivers/STM32F3xx_HAL_Driver/Inc/stm32f3xx_ll_exti.h ****   *         @arg @ref LL_EXTI_LINE_12
 429:Drivers/STM32F3xx_HAL_Driver/Inc/stm32f3xx_ll_exti.h ****   *         @arg @ref LL_EXTI_LINE_13
 430:Drivers/STM32F3xx_HAL_Driver/Inc/stm32f3xx_ll_exti.h ****   *         @arg @ref LL_EXTI_LINE_14
 431:Drivers/STM32F3xx_HAL_Driver/Inc/stm32f3xx_ll_exti.h ****   *         @arg @ref LL_EXTI_LINE_15
 432:Drivers/STM32F3xx_HAL_Driver/Inc/stm32f3xx_ll_exti.h ****   *         @arg @ref LL_EXTI_LINE_16
 433:Drivers/STM32F3xx_HAL_Driver/Inc/stm32f3xx_ll_exti.h ****   *         @arg @ref LL_EXTI_LINE_17
 434:Drivers/STM32F3xx_HAL_Driver/Inc/stm32f3xx_ll_exti.h ****   *         @arg @ref LL_EXTI_LINE_18
 435:Drivers/STM32F3xx_HAL_Driver/Inc/stm32f3xx_ll_exti.h ****   *         @arg @ref LL_EXTI_LINE_19
 436:Drivers/STM32F3xx_HAL_Driver/Inc/stm32f3xx_ll_exti.h ****   *         @arg @ref LL_EXTI_LINE_20
 437:Drivers/STM32F3xx_HAL_Driver/Inc/stm32f3xx_ll_exti.h ****   *         @arg @ref LL_EXTI_LINE_21
 438:Drivers/STM32F3xx_HAL_Driver/Inc/stm32f3xx_ll_exti.h ****   *         @arg @ref LL_EXTI_LINE_22
 439:Drivers/STM32F3xx_HAL_Driver/Inc/stm32f3xx_ll_exti.h ****   *         @arg @ref LL_EXTI_LINE_23
 440:Drivers/STM32F3xx_HAL_Driver/Inc/stm32f3xx_ll_exti.h ****   *         @arg @ref LL_EXTI_LINE_24
 441:Drivers/STM32F3xx_HAL_Driver/Inc/stm32f3xx_ll_exti.h ****   *         @arg @ref LL_EXTI_LINE_25
 442:Drivers/STM32F3xx_HAL_Driver/Inc/stm32f3xx_ll_exti.h ****   *         @arg @ref LL_EXTI_LINE_26
 443:Drivers/STM32F3xx_HAL_Driver/Inc/stm32f3xx_ll_exti.h ****   *         @arg @ref LL_EXTI_LINE_27
 444:Drivers/STM32F3xx_HAL_Driver/Inc/stm32f3xx_ll_exti.h ****   *         @arg @ref LL_EXTI_LINE_28
 445:Drivers/STM32F3xx_HAL_Driver/Inc/stm32f3xx_ll_exti.h ****   *         @arg @ref LL_EXTI_LINE_29
 446:Drivers/STM32F3xx_HAL_Driver/Inc/stm32f3xx_ll_exti.h ****   *         @arg @ref LL_EXTI_LINE_30
 447:Drivers/STM32F3xx_HAL_Driver/Inc/stm32f3xx_ll_exti.h ****   *         @arg @ref LL_EXTI_LINE_31
 448:Drivers/STM32F3xx_HAL_Driver/Inc/stm32f3xx_ll_exti.h ****   *         @arg @ref LL_EXTI_LINE_ALL_0_31
 449:Drivers/STM32F3xx_HAL_Driver/Inc/stm32f3xx_ll_exti.h ****   * @note   Please check each device line mapping for EXTI Line availability
 450:Drivers/STM32F3xx_HAL_Driver/Inc/stm32f3xx_ll_exti.h ****   * @retval State of bit (1 or 0).
 451:Drivers/STM32F3xx_HAL_Driver/Inc/stm32f3xx_ll_exti.h ****   */
 452:Drivers/STM32F3xx_HAL_Driver/Inc/stm32f3xx_ll_exti.h **** __STATIC_INLINE uint32_t LL_EXTI_IsEnabledIT_0_31(uint32_t ExtiLine)
 453:Drivers/STM32F3xx_HAL_Driver/Inc/stm32f3xx_ll_exti.h **** {
 454:Drivers/STM32F3xx_HAL_Driver/Inc/stm32f3xx_ll_exti.h ****   return (READ_BIT(EXTI->IMR, ExtiLine) == (ExtiLine));
 455:Drivers/STM32F3xx_HAL_Driver/Inc/stm32f3xx_ll_exti.h **** }
 456:Drivers/STM32F3xx_HAL_Driver/Inc/stm32f3xx_ll_exti.h **** 
 457:Drivers/STM32F3xx_HAL_Driver/Inc/stm32f3xx_ll_exti.h **** #if defined(EXTI_32_63_SUPPORT)
 458:Drivers/STM32F3xx_HAL_Driver/Inc/stm32f3xx_ll_exti.h **** /**
 459:Drivers/STM32F3xx_HAL_Driver/Inc/stm32f3xx_ll_exti.h ****   * @brief  Indicate if ExtiLine Interrupt request is enabled for Lines in range 32 to 63
 460:Drivers/STM32F3xx_HAL_Driver/Inc/stm32f3xx_ll_exti.h ****   * @note The reset value for the direct lines (lines from 32 to 34, line
 461:Drivers/STM32F3xx_HAL_Driver/Inc/stm32f3xx_ll_exti.h ****   *       39) is set to 1 in order to enable the interrupt by default.
 462:Drivers/STM32F3xx_HAL_Driver/Inc/stm32f3xx_ll_exti.h ****   *       Bits are set automatically at Power on.
 463:Drivers/STM32F3xx_HAL_Driver/Inc/stm32f3xx_ll_exti.h ****   * @rmtoll IMR2         IMx           LL_EXTI_IsEnabledIT_32_63
 464:Drivers/STM32F3xx_HAL_Driver/Inc/stm32f3xx_ll_exti.h ****   * @param  ExtiLine This parameter can be one of the following values:
 465:Drivers/STM32F3xx_HAL_Driver/Inc/stm32f3xx_ll_exti.h ****   *         @arg @ref LL_EXTI_LINE_32
 466:Drivers/STM32F3xx_HAL_Driver/Inc/stm32f3xx_ll_exti.h ****   *         @arg @ref LL_EXTI_LINE_33
ARM GAS  /tmp/ccc7EsBH.s 			page 14


 467:Drivers/STM32F3xx_HAL_Driver/Inc/stm32f3xx_ll_exti.h ****   *         @arg @ref LL_EXTI_LINE_34
 468:Drivers/STM32F3xx_HAL_Driver/Inc/stm32f3xx_ll_exti.h ****   *         @arg @ref LL_EXTI_LINE_35
 469:Drivers/STM32F3xx_HAL_Driver/Inc/stm32f3xx_ll_exti.h ****   *         @arg @ref LL_EXTI_LINE_36
 470:Drivers/STM32F3xx_HAL_Driver/Inc/stm32f3xx_ll_exti.h ****   *         @arg @ref LL_EXTI_LINE_37
 471:Drivers/STM32F3xx_HAL_Driver/Inc/stm32f3xx_ll_exti.h ****   *         @arg @ref LL_EXTI_LINE_38
 472:Drivers/STM32F3xx_HAL_Driver/Inc/stm32f3xx_ll_exti.h ****   *         @arg @ref LL_EXTI_LINE_39
 473:Drivers/STM32F3xx_HAL_Driver/Inc/stm32f3xx_ll_exti.h ****   *         @arg @ref LL_EXTI_LINE_ALL_32_63
 474:Drivers/STM32F3xx_HAL_Driver/Inc/stm32f3xx_ll_exti.h ****   * @retval State of bit (1 or 0).
 475:Drivers/STM32F3xx_HAL_Driver/Inc/stm32f3xx_ll_exti.h ****   */
 476:Drivers/STM32F3xx_HAL_Driver/Inc/stm32f3xx_ll_exti.h **** __STATIC_INLINE uint32_t LL_EXTI_IsEnabledIT_32_63(uint32_t ExtiLine)
 477:Drivers/STM32F3xx_HAL_Driver/Inc/stm32f3xx_ll_exti.h **** {
 478:Drivers/STM32F3xx_HAL_Driver/Inc/stm32f3xx_ll_exti.h ****   return (READ_BIT(EXTI->IMR2, ExtiLine) == (ExtiLine));
 479:Drivers/STM32F3xx_HAL_Driver/Inc/stm32f3xx_ll_exti.h **** }
 480:Drivers/STM32F3xx_HAL_Driver/Inc/stm32f3xx_ll_exti.h **** #endif
 481:Drivers/STM32F3xx_HAL_Driver/Inc/stm32f3xx_ll_exti.h **** 
 482:Drivers/STM32F3xx_HAL_Driver/Inc/stm32f3xx_ll_exti.h **** /**
 483:Drivers/STM32F3xx_HAL_Driver/Inc/stm32f3xx_ll_exti.h ****   * @}
 484:Drivers/STM32F3xx_HAL_Driver/Inc/stm32f3xx_ll_exti.h ****   */
 485:Drivers/STM32F3xx_HAL_Driver/Inc/stm32f3xx_ll_exti.h **** 
 486:Drivers/STM32F3xx_HAL_Driver/Inc/stm32f3xx_ll_exti.h **** /** @defgroup EXTI_LL_EF_Event_Management Event_Management
 487:Drivers/STM32F3xx_HAL_Driver/Inc/stm32f3xx_ll_exti.h ****   * @{
 488:Drivers/STM32F3xx_HAL_Driver/Inc/stm32f3xx_ll_exti.h ****   */
 489:Drivers/STM32F3xx_HAL_Driver/Inc/stm32f3xx_ll_exti.h **** 
 490:Drivers/STM32F3xx_HAL_Driver/Inc/stm32f3xx_ll_exti.h **** /**
 491:Drivers/STM32F3xx_HAL_Driver/Inc/stm32f3xx_ll_exti.h ****   * @brief  Enable ExtiLine Event request for Lines in range 0 to 31
 492:Drivers/STM32F3xx_HAL_Driver/Inc/stm32f3xx_ll_exti.h ****   * @rmtoll EMR         EMx           LL_EXTI_EnableEvent_0_31
 493:Drivers/STM32F3xx_HAL_Driver/Inc/stm32f3xx_ll_exti.h ****   * @param  ExtiLine This parameter can be one of the following values:
 494:Drivers/STM32F3xx_HAL_Driver/Inc/stm32f3xx_ll_exti.h ****   *         @arg @ref LL_EXTI_LINE_0
 495:Drivers/STM32F3xx_HAL_Driver/Inc/stm32f3xx_ll_exti.h ****   *         @arg @ref LL_EXTI_LINE_1
 496:Drivers/STM32F3xx_HAL_Driver/Inc/stm32f3xx_ll_exti.h ****   *         @arg @ref LL_EXTI_LINE_2
 497:Drivers/STM32F3xx_HAL_Driver/Inc/stm32f3xx_ll_exti.h ****   *         @arg @ref LL_EXTI_LINE_3
 498:Drivers/STM32F3xx_HAL_Driver/Inc/stm32f3xx_ll_exti.h ****   *         @arg @ref LL_EXTI_LINE_4
 499:Drivers/STM32F3xx_HAL_Driver/Inc/stm32f3xx_ll_exti.h ****   *         @arg @ref LL_EXTI_LINE_5
 500:Drivers/STM32F3xx_HAL_Driver/Inc/stm32f3xx_ll_exti.h ****   *         @arg @ref LL_EXTI_LINE_6
 501:Drivers/STM32F3xx_HAL_Driver/Inc/stm32f3xx_ll_exti.h ****   *         @arg @ref LL_EXTI_LINE_7
 502:Drivers/STM32F3xx_HAL_Driver/Inc/stm32f3xx_ll_exti.h ****   *         @arg @ref LL_EXTI_LINE_8
 503:Drivers/STM32F3xx_HAL_Driver/Inc/stm32f3xx_ll_exti.h ****   *         @arg @ref LL_EXTI_LINE_9
 504:Drivers/STM32F3xx_HAL_Driver/Inc/stm32f3xx_ll_exti.h ****   *         @arg @ref LL_EXTI_LINE_10
 505:Drivers/STM32F3xx_HAL_Driver/Inc/stm32f3xx_ll_exti.h ****   *         @arg @ref LL_EXTI_LINE_11
 506:Drivers/STM32F3xx_HAL_Driver/Inc/stm32f3xx_ll_exti.h ****   *         @arg @ref LL_EXTI_LINE_12
 507:Drivers/STM32F3xx_HAL_Driver/Inc/stm32f3xx_ll_exti.h ****   *         @arg @ref LL_EXTI_LINE_13
 508:Drivers/STM32F3xx_HAL_Driver/Inc/stm32f3xx_ll_exti.h ****   *         @arg @ref LL_EXTI_LINE_14
 509:Drivers/STM32F3xx_HAL_Driver/Inc/stm32f3xx_ll_exti.h ****   *         @arg @ref LL_EXTI_LINE_15
 510:Drivers/STM32F3xx_HAL_Driver/Inc/stm32f3xx_ll_exti.h ****   *         @arg @ref LL_EXTI_LINE_16
 511:Drivers/STM32F3xx_HAL_Driver/Inc/stm32f3xx_ll_exti.h ****   *         @arg @ref LL_EXTI_LINE_17
 512:Drivers/STM32F3xx_HAL_Driver/Inc/stm32f3xx_ll_exti.h ****   *         @arg @ref LL_EXTI_LINE_18
 513:Drivers/STM32F3xx_HAL_Driver/Inc/stm32f3xx_ll_exti.h ****   *         @arg @ref LL_EXTI_LINE_19
 514:Drivers/STM32F3xx_HAL_Driver/Inc/stm32f3xx_ll_exti.h ****   *         @arg @ref LL_EXTI_LINE_20
 515:Drivers/STM32F3xx_HAL_Driver/Inc/stm32f3xx_ll_exti.h ****   *         @arg @ref LL_EXTI_LINE_21
 516:Drivers/STM32F3xx_HAL_Driver/Inc/stm32f3xx_ll_exti.h ****   *         @arg @ref LL_EXTI_LINE_22
 517:Drivers/STM32F3xx_HAL_Driver/Inc/stm32f3xx_ll_exti.h ****   *         @arg @ref LL_EXTI_LINE_23
 518:Drivers/STM32F3xx_HAL_Driver/Inc/stm32f3xx_ll_exti.h ****   *         @arg @ref LL_EXTI_LINE_24
 519:Drivers/STM32F3xx_HAL_Driver/Inc/stm32f3xx_ll_exti.h ****   *         @arg @ref LL_EXTI_LINE_25
 520:Drivers/STM32F3xx_HAL_Driver/Inc/stm32f3xx_ll_exti.h ****   *         @arg @ref LL_EXTI_LINE_26
 521:Drivers/STM32F3xx_HAL_Driver/Inc/stm32f3xx_ll_exti.h ****   *         @arg @ref LL_EXTI_LINE_27
 522:Drivers/STM32F3xx_HAL_Driver/Inc/stm32f3xx_ll_exti.h ****   *         @arg @ref LL_EXTI_LINE_28
 523:Drivers/STM32F3xx_HAL_Driver/Inc/stm32f3xx_ll_exti.h ****   *         @arg @ref LL_EXTI_LINE_29
ARM GAS  /tmp/ccc7EsBH.s 			page 15


 524:Drivers/STM32F3xx_HAL_Driver/Inc/stm32f3xx_ll_exti.h ****   *         @arg @ref LL_EXTI_LINE_30
 525:Drivers/STM32F3xx_HAL_Driver/Inc/stm32f3xx_ll_exti.h ****   *         @arg @ref LL_EXTI_LINE_31
 526:Drivers/STM32F3xx_HAL_Driver/Inc/stm32f3xx_ll_exti.h ****   *         @arg @ref LL_EXTI_LINE_ALL_0_31
 527:Drivers/STM32F3xx_HAL_Driver/Inc/stm32f3xx_ll_exti.h ****   * @note   Please check each device line mapping for EXTI Line availability
 528:Drivers/STM32F3xx_HAL_Driver/Inc/stm32f3xx_ll_exti.h ****   * @retval None
 529:Drivers/STM32F3xx_HAL_Driver/Inc/stm32f3xx_ll_exti.h ****   */
 530:Drivers/STM32F3xx_HAL_Driver/Inc/stm32f3xx_ll_exti.h **** __STATIC_INLINE void LL_EXTI_EnableEvent_0_31(uint32_t ExtiLine)
 531:Drivers/STM32F3xx_HAL_Driver/Inc/stm32f3xx_ll_exti.h **** {
 532:Drivers/STM32F3xx_HAL_Driver/Inc/stm32f3xx_ll_exti.h ****   SET_BIT(EXTI->EMR, ExtiLine);
 533:Drivers/STM32F3xx_HAL_Driver/Inc/stm32f3xx_ll_exti.h **** 
 534:Drivers/STM32F3xx_HAL_Driver/Inc/stm32f3xx_ll_exti.h **** }
 535:Drivers/STM32F3xx_HAL_Driver/Inc/stm32f3xx_ll_exti.h **** 
 536:Drivers/STM32F3xx_HAL_Driver/Inc/stm32f3xx_ll_exti.h **** #if defined(EXTI_32_63_SUPPORT)
 537:Drivers/STM32F3xx_HAL_Driver/Inc/stm32f3xx_ll_exti.h **** /**
 538:Drivers/STM32F3xx_HAL_Driver/Inc/stm32f3xx_ll_exti.h ****   * @brief  Enable ExtiLine Event request for Lines in range 32 to 63
 539:Drivers/STM32F3xx_HAL_Driver/Inc/stm32f3xx_ll_exti.h ****   * @rmtoll EMR2         EMx           LL_EXTI_EnableEvent_32_63
 540:Drivers/STM32F3xx_HAL_Driver/Inc/stm32f3xx_ll_exti.h ****   * @param  ExtiLine This parameter can be a combination of the following values:
 541:Drivers/STM32F3xx_HAL_Driver/Inc/stm32f3xx_ll_exti.h ****   *         @arg @ref LL_EXTI_LINE_32
 542:Drivers/STM32F3xx_HAL_Driver/Inc/stm32f3xx_ll_exti.h ****   *         @arg @ref LL_EXTI_LINE_33
 543:Drivers/STM32F3xx_HAL_Driver/Inc/stm32f3xx_ll_exti.h ****   *         @arg @ref LL_EXTI_LINE_34
 544:Drivers/STM32F3xx_HAL_Driver/Inc/stm32f3xx_ll_exti.h ****   *         @arg @ref LL_EXTI_LINE_35
 545:Drivers/STM32F3xx_HAL_Driver/Inc/stm32f3xx_ll_exti.h ****   *         @arg @ref LL_EXTI_LINE_36
 546:Drivers/STM32F3xx_HAL_Driver/Inc/stm32f3xx_ll_exti.h ****   *         @arg @ref LL_EXTI_LINE_37
 547:Drivers/STM32F3xx_HAL_Driver/Inc/stm32f3xx_ll_exti.h ****   *         @arg @ref LL_EXTI_LINE_38
 548:Drivers/STM32F3xx_HAL_Driver/Inc/stm32f3xx_ll_exti.h ****   *         @arg @ref LL_EXTI_LINE_39
 549:Drivers/STM32F3xx_HAL_Driver/Inc/stm32f3xx_ll_exti.h ****   *         @arg @ref LL_EXTI_LINE_ALL_32_63
 550:Drivers/STM32F3xx_HAL_Driver/Inc/stm32f3xx_ll_exti.h ****   * @retval None
 551:Drivers/STM32F3xx_HAL_Driver/Inc/stm32f3xx_ll_exti.h ****   */
 552:Drivers/STM32F3xx_HAL_Driver/Inc/stm32f3xx_ll_exti.h **** __STATIC_INLINE void LL_EXTI_EnableEvent_32_63(uint32_t ExtiLine)
 553:Drivers/STM32F3xx_HAL_Driver/Inc/stm32f3xx_ll_exti.h **** {
 554:Drivers/STM32F3xx_HAL_Driver/Inc/stm32f3xx_ll_exti.h ****   SET_BIT(EXTI->EMR2, ExtiLine);
 555:Drivers/STM32F3xx_HAL_Driver/Inc/stm32f3xx_ll_exti.h **** }
 556:Drivers/STM32F3xx_HAL_Driver/Inc/stm32f3xx_ll_exti.h **** #endif
 557:Drivers/STM32F3xx_HAL_Driver/Inc/stm32f3xx_ll_exti.h **** 
 558:Drivers/STM32F3xx_HAL_Driver/Inc/stm32f3xx_ll_exti.h **** /**
 559:Drivers/STM32F3xx_HAL_Driver/Inc/stm32f3xx_ll_exti.h ****   * @brief  Disable ExtiLine Event request for Lines in range 0 to 31
 560:Drivers/STM32F3xx_HAL_Driver/Inc/stm32f3xx_ll_exti.h ****   * @rmtoll EMR         EMx           LL_EXTI_DisableEvent_0_31
 561:Drivers/STM32F3xx_HAL_Driver/Inc/stm32f3xx_ll_exti.h ****   * @param  ExtiLine This parameter can be one of the following values:
 562:Drivers/STM32F3xx_HAL_Driver/Inc/stm32f3xx_ll_exti.h ****   *         @arg @ref LL_EXTI_LINE_0
 563:Drivers/STM32F3xx_HAL_Driver/Inc/stm32f3xx_ll_exti.h ****   *         @arg @ref LL_EXTI_LINE_1
 564:Drivers/STM32F3xx_HAL_Driver/Inc/stm32f3xx_ll_exti.h ****   *         @arg @ref LL_EXTI_LINE_2
 565:Drivers/STM32F3xx_HAL_Driver/Inc/stm32f3xx_ll_exti.h ****   *         @arg @ref LL_EXTI_LINE_3
 566:Drivers/STM32F3xx_HAL_Driver/Inc/stm32f3xx_ll_exti.h ****   *         @arg @ref LL_EXTI_LINE_4
 567:Drivers/STM32F3xx_HAL_Driver/Inc/stm32f3xx_ll_exti.h ****   *         @arg @ref LL_EXTI_LINE_5
 568:Drivers/STM32F3xx_HAL_Driver/Inc/stm32f3xx_ll_exti.h ****   *         @arg @ref LL_EXTI_LINE_6
 569:Drivers/STM32F3xx_HAL_Driver/Inc/stm32f3xx_ll_exti.h ****   *         @arg @ref LL_EXTI_LINE_7
 570:Drivers/STM32F3xx_HAL_Driver/Inc/stm32f3xx_ll_exti.h ****   *         @arg @ref LL_EXTI_LINE_8
 571:Drivers/STM32F3xx_HAL_Driver/Inc/stm32f3xx_ll_exti.h ****   *         @arg @ref LL_EXTI_LINE_9
 572:Drivers/STM32F3xx_HAL_Driver/Inc/stm32f3xx_ll_exti.h ****   *         @arg @ref LL_EXTI_LINE_10
 573:Drivers/STM32F3xx_HAL_Driver/Inc/stm32f3xx_ll_exti.h ****   *         @arg @ref LL_EXTI_LINE_11
 574:Drivers/STM32F3xx_HAL_Driver/Inc/stm32f3xx_ll_exti.h ****   *         @arg @ref LL_EXTI_LINE_12
 575:Drivers/STM32F3xx_HAL_Driver/Inc/stm32f3xx_ll_exti.h ****   *         @arg @ref LL_EXTI_LINE_13
 576:Drivers/STM32F3xx_HAL_Driver/Inc/stm32f3xx_ll_exti.h ****   *         @arg @ref LL_EXTI_LINE_14
 577:Drivers/STM32F3xx_HAL_Driver/Inc/stm32f3xx_ll_exti.h ****   *         @arg @ref LL_EXTI_LINE_15
 578:Drivers/STM32F3xx_HAL_Driver/Inc/stm32f3xx_ll_exti.h ****   *         @arg @ref LL_EXTI_LINE_16
 579:Drivers/STM32F3xx_HAL_Driver/Inc/stm32f3xx_ll_exti.h ****   *         @arg @ref LL_EXTI_LINE_17
 580:Drivers/STM32F3xx_HAL_Driver/Inc/stm32f3xx_ll_exti.h ****   *         @arg @ref LL_EXTI_LINE_18
ARM GAS  /tmp/ccc7EsBH.s 			page 16


 581:Drivers/STM32F3xx_HAL_Driver/Inc/stm32f3xx_ll_exti.h ****   *         @arg @ref LL_EXTI_LINE_19
 582:Drivers/STM32F3xx_HAL_Driver/Inc/stm32f3xx_ll_exti.h ****   *         @arg @ref LL_EXTI_LINE_20
 583:Drivers/STM32F3xx_HAL_Driver/Inc/stm32f3xx_ll_exti.h ****   *         @arg @ref LL_EXTI_LINE_21
 584:Drivers/STM32F3xx_HAL_Driver/Inc/stm32f3xx_ll_exti.h ****   *         @arg @ref LL_EXTI_LINE_22
 585:Drivers/STM32F3xx_HAL_Driver/Inc/stm32f3xx_ll_exti.h ****   *         @arg @ref LL_EXTI_LINE_23
 586:Drivers/STM32F3xx_HAL_Driver/Inc/stm32f3xx_ll_exti.h ****   *         @arg @ref LL_EXTI_LINE_24
 587:Drivers/STM32F3xx_HAL_Driver/Inc/stm32f3xx_ll_exti.h ****   *         @arg @ref LL_EXTI_LINE_25
 588:Drivers/STM32F3xx_HAL_Driver/Inc/stm32f3xx_ll_exti.h ****   *         @arg @ref LL_EXTI_LINE_26
 589:Drivers/STM32F3xx_HAL_Driver/Inc/stm32f3xx_ll_exti.h ****   *         @arg @ref LL_EXTI_LINE_27
 590:Drivers/STM32F3xx_HAL_Driver/Inc/stm32f3xx_ll_exti.h ****   *         @arg @ref LL_EXTI_LINE_28
 591:Drivers/STM32F3xx_HAL_Driver/Inc/stm32f3xx_ll_exti.h ****   *         @arg @ref LL_EXTI_LINE_29
 592:Drivers/STM32F3xx_HAL_Driver/Inc/stm32f3xx_ll_exti.h ****   *         @arg @ref LL_EXTI_LINE_30
 593:Drivers/STM32F3xx_HAL_Driver/Inc/stm32f3xx_ll_exti.h ****   *         @arg @ref LL_EXTI_LINE_31
 594:Drivers/STM32F3xx_HAL_Driver/Inc/stm32f3xx_ll_exti.h ****   *         @arg @ref LL_EXTI_LINE_ALL_0_31
 595:Drivers/STM32F3xx_HAL_Driver/Inc/stm32f3xx_ll_exti.h ****   * @note   Please check each device line mapping for EXTI Line availability
 596:Drivers/STM32F3xx_HAL_Driver/Inc/stm32f3xx_ll_exti.h ****   * @retval None
 597:Drivers/STM32F3xx_HAL_Driver/Inc/stm32f3xx_ll_exti.h ****   */
 598:Drivers/STM32F3xx_HAL_Driver/Inc/stm32f3xx_ll_exti.h **** __STATIC_INLINE void LL_EXTI_DisableEvent_0_31(uint32_t ExtiLine)
 130              		.loc 2 598 22 view .LVU33
 131              	.LBB59:
 599:Drivers/STM32F3xx_HAL_Driver/Inc/stm32f3xx_ll_exti.h **** {
 600:Drivers/STM32F3xx_HAL_Driver/Inc/stm32f3xx_ll_exti.h ****   CLEAR_BIT(EXTI->EMR, ExtiLine);
 132              		.loc 2 600 3 view .LVU34
 133 0020 5C49     		ldr	r1, .L24
 134 0022 4C68     		ldr	r4, [r1, #4]
 135 0024 24EA0202 		bic	r2, r4, r2
 136              	.LVL4:
 137              		.loc 2 600 3 is_stmt 0 view .LVU35
 138 0028 4A60     		str	r2, [r1, #4]
 139              	.LVL5:
 140              		.loc 2 600 3 view .LVU36
 141              	.LBE59:
 142              	.LBE58:
 150:Drivers/STM32F3xx_HAL_Driver/Src/stm32f3xx_ll_exti.c ****           /* Then Enable IT on provided Lines */
 151:Drivers/STM32F3xx_HAL_Driver/Src/stm32f3xx_ll_exti.c ****           LL_EXTI_EnableIT_0_31(EXTI_InitStruct->Line_0_31);
 143              		.loc 1 151 11 is_stmt 1 view .LVU37
 144 002a 1A68     		ldr	r2, [r3]
 145              	.LVL6:
 146              	.LBB60:
 147              	.LBI60:
 307:Drivers/STM32F3xx_HAL_Driver/Inc/stm32f3xx_ll_exti.h **** {
 148              		.loc 2 307 22 view .LVU38
 149              	.LBB61:
 309:Drivers/STM32F3xx_HAL_Driver/Inc/stm32f3xx_ll_exti.h **** }
 150              		.loc 2 309 3 view .LVU39
 151 002c 0C68     		ldr	r4, [r1]
 152 002e 2243     		orrs	r2, r2, r4
 153              	.LVL7:
 309:Drivers/STM32F3xx_HAL_Driver/Inc/stm32f3xx_ll_exti.h **** }
 154              		.loc 2 309 3 is_stmt 0 view .LVU40
 155 0030 0A60     		str	r2, [r1]
 156              	.LVL8:
 309:Drivers/STM32F3xx_HAL_Driver/Inc/stm32f3xx_ll_exti.h **** }
 157              		.loc 2 309 3 view .LVU41
 158              	.LBE61:
 159              	.LBE60:
 152:Drivers/STM32F3xx_HAL_Driver/Src/stm32f3xx_ll_exti.c ****           break;
ARM GAS  /tmp/ccc7EsBH.s 			page 17


 160              		.loc 1 152 11 is_stmt 1 view .LVU42
 161              	.L9:
 153:Drivers/STM32F3xx_HAL_Driver/Src/stm32f3xx_ll_exti.c ****         case LL_EXTI_MODE_EVENT:
 154:Drivers/STM32F3xx_HAL_Driver/Src/stm32f3xx_ll_exti.c ****           /* First Disable IT on provided Lines */
 155:Drivers/STM32F3xx_HAL_Driver/Src/stm32f3xx_ll_exti.c ****           LL_EXTI_DisableIT_0_31(EXTI_InitStruct->Line_0_31);
 156:Drivers/STM32F3xx_HAL_Driver/Src/stm32f3xx_ll_exti.c ****           /* Then Enable Event on provided Lines */
 157:Drivers/STM32F3xx_HAL_Driver/Src/stm32f3xx_ll_exti.c ****           LL_EXTI_EnableEvent_0_31(EXTI_InitStruct->Line_0_31);
 158:Drivers/STM32F3xx_HAL_Driver/Src/stm32f3xx_ll_exti.c ****           break;
 159:Drivers/STM32F3xx_HAL_Driver/Src/stm32f3xx_ll_exti.c ****         case LL_EXTI_MODE_IT_EVENT:
 160:Drivers/STM32F3xx_HAL_Driver/Src/stm32f3xx_ll_exti.c ****           /* Directly Enable IT & Event on provided Lines */
 161:Drivers/STM32F3xx_HAL_Driver/Src/stm32f3xx_ll_exti.c ****           LL_EXTI_EnableIT_0_31(EXTI_InitStruct->Line_0_31);
 162:Drivers/STM32F3xx_HAL_Driver/Src/stm32f3xx_ll_exti.c ****           LL_EXTI_EnableEvent_0_31(EXTI_InitStruct->Line_0_31);
 163:Drivers/STM32F3xx_HAL_Driver/Src/stm32f3xx_ll_exti.c ****           break;
 164:Drivers/STM32F3xx_HAL_Driver/Src/stm32f3xx_ll_exti.c ****         default:
 165:Drivers/STM32F3xx_HAL_Driver/Src/stm32f3xx_ll_exti.c ****           status = ERROR;
 166:Drivers/STM32F3xx_HAL_Driver/Src/stm32f3xx_ll_exti.c ****           break;
 167:Drivers/STM32F3xx_HAL_Driver/Src/stm32f3xx_ll_exti.c ****       }
 168:Drivers/STM32F3xx_HAL_Driver/Src/stm32f3xx_ll_exti.c ****       if (EXTI_InitStruct->Trigger != LL_EXTI_TRIGGER_NONE)
 162              		.loc 1 168 7 view .LVU43
 163              		.loc 1 168 26 is_stmt 0 view .LVU44
 164 0032 9A7A     		ldrb	r2, [r3, #10]	@ zero_extendqisi2
 165              		.loc 1 168 10 view .LVU45
 166 0034 002A     		cmp	r2, #0
 167 0036 3DD0     		beq	.L6
 169:Drivers/STM32F3xx_HAL_Driver/Src/stm32f3xx_ll_exti.c ****       {
 170:Drivers/STM32F3xx_HAL_Driver/Src/stm32f3xx_ll_exti.c ****         switch (EXTI_InitStruct->Trigger)
 168              		.loc 1 170 9 is_stmt 1 view .LVU46
 169 0038 022A     		cmp	r2, #2
 170 003a 25D0     		beq	.L10
 171 003c 032A     		cmp	r2, #3
 172 003e 2ED0     		beq	.L11
 173 0040 012A     		cmp	r2, #1
 174 0042 61D1     		bne	.L20
 171:Drivers/STM32F3xx_HAL_Driver/Src/stm32f3xx_ll_exti.c ****         {
 172:Drivers/STM32F3xx_HAL_Driver/Src/stm32f3xx_ll_exti.c ****           case LL_EXTI_TRIGGER_RISING:
 173:Drivers/STM32F3xx_HAL_Driver/Src/stm32f3xx_ll_exti.c ****             /* First Disable Falling Trigger on provided Lines */
 174:Drivers/STM32F3xx_HAL_Driver/Src/stm32f3xx_ll_exti.c ****             LL_EXTI_DisableFallingTrig_0_31(EXTI_InitStruct->Line_0_31);
 175              		.loc 1 174 13 view .LVU47
 176 0044 1C68     		ldr	r4, [r3]
 177              	.LVL9:
 178              	.LBB62:
 179              	.LBI62:
 601:Drivers/STM32F3xx_HAL_Driver/Inc/stm32f3xx_ll_exti.h **** }
 602:Drivers/STM32F3xx_HAL_Driver/Inc/stm32f3xx_ll_exti.h **** 
 603:Drivers/STM32F3xx_HAL_Driver/Inc/stm32f3xx_ll_exti.h **** #if defined(EXTI_32_63_SUPPORT)
 604:Drivers/STM32F3xx_HAL_Driver/Inc/stm32f3xx_ll_exti.h **** /**
 605:Drivers/STM32F3xx_HAL_Driver/Inc/stm32f3xx_ll_exti.h ****   * @brief  Disable ExtiLine Event request for Lines in range 32 to 63
 606:Drivers/STM32F3xx_HAL_Driver/Inc/stm32f3xx_ll_exti.h ****   * @rmtoll EMR2         EMx           LL_EXTI_DisableEvent_32_63
 607:Drivers/STM32F3xx_HAL_Driver/Inc/stm32f3xx_ll_exti.h ****   * @param  ExtiLine This parameter can be a combination of the following values:
 608:Drivers/STM32F3xx_HAL_Driver/Inc/stm32f3xx_ll_exti.h ****   *         @arg @ref LL_EXTI_LINE_32
 609:Drivers/STM32F3xx_HAL_Driver/Inc/stm32f3xx_ll_exti.h ****   *         @arg @ref LL_EXTI_LINE_33
 610:Drivers/STM32F3xx_HAL_Driver/Inc/stm32f3xx_ll_exti.h ****   *         @arg @ref LL_EXTI_LINE_34
 611:Drivers/STM32F3xx_HAL_Driver/Inc/stm32f3xx_ll_exti.h ****   *         @arg @ref LL_EXTI_LINE_35
 612:Drivers/STM32F3xx_HAL_Driver/Inc/stm32f3xx_ll_exti.h ****   *         @arg @ref LL_EXTI_LINE_36
 613:Drivers/STM32F3xx_HAL_Driver/Inc/stm32f3xx_ll_exti.h ****   *         @arg @ref LL_EXTI_LINE_37
 614:Drivers/STM32F3xx_HAL_Driver/Inc/stm32f3xx_ll_exti.h ****   *         @arg @ref LL_EXTI_LINE_38
 615:Drivers/STM32F3xx_HAL_Driver/Inc/stm32f3xx_ll_exti.h ****   *         @arg @ref LL_EXTI_LINE_39
ARM GAS  /tmp/ccc7EsBH.s 			page 18


 616:Drivers/STM32F3xx_HAL_Driver/Inc/stm32f3xx_ll_exti.h ****   *         @arg @ref LL_EXTI_LINE_ALL_32_63
 617:Drivers/STM32F3xx_HAL_Driver/Inc/stm32f3xx_ll_exti.h ****   * @retval None
 618:Drivers/STM32F3xx_HAL_Driver/Inc/stm32f3xx_ll_exti.h ****   */
 619:Drivers/STM32F3xx_HAL_Driver/Inc/stm32f3xx_ll_exti.h **** __STATIC_INLINE void LL_EXTI_DisableEvent_32_63(uint32_t ExtiLine)
 620:Drivers/STM32F3xx_HAL_Driver/Inc/stm32f3xx_ll_exti.h **** {
 621:Drivers/STM32F3xx_HAL_Driver/Inc/stm32f3xx_ll_exti.h ****   CLEAR_BIT(EXTI->EMR2, ExtiLine);
 622:Drivers/STM32F3xx_HAL_Driver/Inc/stm32f3xx_ll_exti.h **** }
 623:Drivers/STM32F3xx_HAL_Driver/Inc/stm32f3xx_ll_exti.h **** #endif
 624:Drivers/STM32F3xx_HAL_Driver/Inc/stm32f3xx_ll_exti.h **** 
 625:Drivers/STM32F3xx_HAL_Driver/Inc/stm32f3xx_ll_exti.h **** /**
 626:Drivers/STM32F3xx_HAL_Driver/Inc/stm32f3xx_ll_exti.h ****   * @brief  Indicate if ExtiLine Event request is enabled for Lines in range 0 to 31
 627:Drivers/STM32F3xx_HAL_Driver/Inc/stm32f3xx_ll_exti.h ****   * @rmtoll EMR         EMx           LL_EXTI_IsEnabledEvent_0_31
 628:Drivers/STM32F3xx_HAL_Driver/Inc/stm32f3xx_ll_exti.h ****   * @param  ExtiLine This parameter can be one of the following values:
 629:Drivers/STM32F3xx_HAL_Driver/Inc/stm32f3xx_ll_exti.h ****   *         @arg @ref LL_EXTI_LINE_0
 630:Drivers/STM32F3xx_HAL_Driver/Inc/stm32f3xx_ll_exti.h ****   *         @arg @ref LL_EXTI_LINE_1
 631:Drivers/STM32F3xx_HAL_Driver/Inc/stm32f3xx_ll_exti.h ****   *         @arg @ref LL_EXTI_LINE_2
 632:Drivers/STM32F3xx_HAL_Driver/Inc/stm32f3xx_ll_exti.h ****   *         @arg @ref LL_EXTI_LINE_3
 633:Drivers/STM32F3xx_HAL_Driver/Inc/stm32f3xx_ll_exti.h ****   *         @arg @ref LL_EXTI_LINE_4
 634:Drivers/STM32F3xx_HAL_Driver/Inc/stm32f3xx_ll_exti.h ****   *         @arg @ref LL_EXTI_LINE_5
 635:Drivers/STM32F3xx_HAL_Driver/Inc/stm32f3xx_ll_exti.h ****   *         @arg @ref LL_EXTI_LINE_6
 636:Drivers/STM32F3xx_HAL_Driver/Inc/stm32f3xx_ll_exti.h ****   *         @arg @ref LL_EXTI_LINE_7
 637:Drivers/STM32F3xx_HAL_Driver/Inc/stm32f3xx_ll_exti.h ****   *         @arg @ref LL_EXTI_LINE_8
 638:Drivers/STM32F3xx_HAL_Driver/Inc/stm32f3xx_ll_exti.h ****   *         @arg @ref LL_EXTI_LINE_9
 639:Drivers/STM32F3xx_HAL_Driver/Inc/stm32f3xx_ll_exti.h ****   *         @arg @ref LL_EXTI_LINE_10
 640:Drivers/STM32F3xx_HAL_Driver/Inc/stm32f3xx_ll_exti.h ****   *         @arg @ref LL_EXTI_LINE_11
 641:Drivers/STM32F3xx_HAL_Driver/Inc/stm32f3xx_ll_exti.h ****   *         @arg @ref LL_EXTI_LINE_12
 642:Drivers/STM32F3xx_HAL_Driver/Inc/stm32f3xx_ll_exti.h ****   *         @arg @ref LL_EXTI_LINE_13
 643:Drivers/STM32F3xx_HAL_Driver/Inc/stm32f3xx_ll_exti.h ****   *         @arg @ref LL_EXTI_LINE_14
 644:Drivers/STM32F3xx_HAL_Driver/Inc/stm32f3xx_ll_exti.h ****   *         @arg @ref LL_EXTI_LINE_15
 645:Drivers/STM32F3xx_HAL_Driver/Inc/stm32f3xx_ll_exti.h ****   *         @arg @ref LL_EXTI_LINE_16
 646:Drivers/STM32F3xx_HAL_Driver/Inc/stm32f3xx_ll_exti.h ****   *         @arg @ref LL_EXTI_LINE_17
 647:Drivers/STM32F3xx_HAL_Driver/Inc/stm32f3xx_ll_exti.h ****   *         @arg @ref LL_EXTI_LINE_18
 648:Drivers/STM32F3xx_HAL_Driver/Inc/stm32f3xx_ll_exti.h ****   *         @arg @ref LL_EXTI_LINE_19
 649:Drivers/STM32F3xx_HAL_Driver/Inc/stm32f3xx_ll_exti.h ****   *         @arg @ref LL_EXTI_LINE_20
 650:Drivers/STM32F3xx_HAL_Driver/Inc/stm32f3xx_ll_exti.h ****   *         @arg @ref LL_EXTI_LINE_21
 651:Drivers/STM32F3xx_HAL_Driver/Inc/stm32f3xx_ll_exti.h ****   *         @arg @ref LL_EXTI_LINE_22
 652:Drivers/STM32F3xx_HAL_Driver/Inc/stm32f3xx_ll_exti.h ****   *         @arg @ref LL_EXTI_LINE_23
 653:Drivers/STM32F3xx_HAL_Driver/Inc/stm32f3xx_ll_exti.h ****   *         @arg @ref LL_EXTI_LINE_24
 654:Drivers/STM32F3xx_HAL_Driver/Inc/stm32f3xx_ll_exti.h ****   *         @arg @ref LL_EXTI_LINE_25
 655:Drivers/STM32F3xx_HAL_Driver/Inc/stm32f3xx_ll_exti.h ****   *         @arg @ref LL_EXTI_LINE_26
 656:Drivers/STM32F3xx_HAL_Driver/Inc/stm32f3xx_ll_exti.h ****   *         @arg @ref LL_EXTI_LINE_27
 657:Drivers/STM32F3xx_HAL_Driver/Inc/stm32f3xx_ll_exti.h ****   *         @arg @ref LL_EXTI_LINE_28
 658:Drivers/STM32F3xx_HAL_Driver/Inc/stm32f3xx_ll_exti.h ****   *         @arg @ref LL_EXTI_LINE_29
 659:Drivers/STM32F3xx_HAL_Driver/Inc/stm32f3xx_ll_exti.h ****   *         @arg @ref LL_EXTI_LINE_30
 660:Drivers/STM32F3xx_HAL_Driver/Inc/stm32f3xx_ll_exti.h ****   *         @arg @ref LL_EXTI_LINE_31
 661:Drivers/STM32F3xx_HAL_Driver/Inc/stm32f3xx_ll_exti.h ****   *         @arg @ref LL_EXTI_LINE_ALL_0_31
 662:Drivers/STM32F3xx_HAL_Driver/Inc/stm32f3xx_ll_exti.h ****   * @note   Please check each device line mapping for EXTI Line availability
 663:Drivers/STM32F3xx_HAL_Driver/Inc/stm32f3xx_ll_exti.h ****   * @retval State of bit (1 or 0).
 664:Drivers/STM32F3xx_HAL_Driver/Inc/stm32f3xx_ll_exti.h ****   */
 665:Drivers/STM32F3xx_HAL_Driver/Inc/stm32f3xx_ll_exti.h **** __STATIC_INLINE uint32_t LL_EXTI_IsEnabledEvent_0_31(uint32_t ExtiLine)
 666:Drivers/STM32F3xx_HAL_Driver/Inc/stm32f3xx_ll_exti.h **** {
 667:Drivers/STM32F3xx_HAL_Driver/Inc/stm32f3xx_ll_exti.h ****   return (READ_BIT(EXTI->EMR, ExtiLine) == (ExtiLine));
 668:Drivers/STM32F3xx_HAL_Driver/Inc/stm32f3xx_ll_exti.h **** 
 669:Drivers/STM32F3xx_HAL_Driver/Inc/stm32f3xx_ll_exti.h **** }
 670:Drivers/STM32F3xx_HAL_Driver/Inc/stm32f3xx_ll_exti.h **** 
 671:Drivers/STM32F3xx_HAL_Driver/Inc/stm32f3xx_ll_exti.h **** #if defined(EXTI_32_63_SUPPORT)
 672:Drivers/STM32F3xx_HAL_Driver/Inc/stm32f3xx_ll_exti.h **** /**
ARM GAS  /tmp/ccc7EsBH.s 			page 19


 673:Drivers/STM32F3xx_HAL_Driver/Inc/stm32f3xx_ll_exti.h ****   * @brief  Indicate if ExtiLine Event request is enabled for Lines in range 32 to 63
 674:Drivers/STM32F3xx_HAL_Driver/Inc/stm32f3xx_ll_exti.h ****   * @rmtoll EMR2         EMx           LL_EXTI_IsEnabledEvent_32_63
 675:Drivers/STM32F3xx_HAL_Driver/Inc/stm32f3xx_ll_exti.h ****   * @param  ExtiLine This parameter can be a combination of the following values:
 676:Drivers/STM32F3xx_HAL_Driver/Inc/stm32f3xx_ll_exti.h ****   *         @arg @ref LL_EXTI_LINE_32
 677:Drivers/STM32F3xx_HAL_Driver/Inc/stm32f3xx_ll_exti.h ****   *         @arg @ref LL_EXTI_LINE_33
 678:Drivers/STM32F3xx_HAL_Driver/Inc/stm32f3xx_ll_exti.h ****   *         @arg @ref LL_EXTI_LINE_34
 679:Drivers/STM32F3xx_HAL_Driver/Inc/stm32f3xx_ll_exti.h ****   *         @arg @ref LL_EXTI_LINE_35
 680:Drivers/STM32F3xx_HAL_Driver/Inc/stm32f3xx_ll_exti.h ****   *         @arg @ref LL_EXTI_LINE_36
 681:Drivers/STM32F3xx_HAL_Driver/Inc/stm32f3xx_ll_exti.h ****   *         @arg @ref LL_EXTI_LINE_37
 682:Drivers/STM32F3xx_HAL_Driver/Inc/stm32f3xx_ll_exti.h ****   *         @arg @ref LL_EXTI_LINE_38
 683:Drivers/STM32F3xx_HAL_Driver/Inc/stm32f3xx_ll_exti.h ****   *         @arg @ref LL_EXTI_LINE_39
 684:Drivers/STM32F3xx_HAL_Driver/Inc/stm32f3xx_ll_exti.h ****   *         @arg @ref LL_EXTI_LINE_ALL_32_63
 685:Drivers/STM32F3xx_HAL_Driver/Inc/stm32f3xx_ll_exti.h ****   * @retval State of bit (1 or 0).
 686:Drivers/STM32F3xx_HAL_Driver/Inc/stm32f3xx_ll_exti.h ****   */
 687:Drivers/STM32F3xx_HAL_Driver/Inc/stm32f3xx_ll_exti.h **** __STATIC_INLINE uint32_t LL_EXTI_IsEnabledEvent_32_63(uint32_t ExtiLine)
 688:Drivers/STM32F3xx_HAL_Driver/Inc/stm32f3xx_ll_exti.h **** {
 689:Drivers/STM32F3xx_HAL_Driver/Inc/stm32f3xx_ll_exti.h ****   return (READ_BIT(EXTI->EMR2, ExtiLine) == (ExtiLine));
 690:Drivers/STM32F3xx_HAL_Driver/Inc/stm32f3xx_ll_exti.h **** }
 691:Drivers/STM32F3xx_HAL_Driver/Inc/stm32f3xx_ll_exti.h **** #endif
 692:Drivers/STM32F3xx_HAL_Driver/Inc/stm32f3xx_ll_exti.h **** 
 693:Drivers/STM32F3xx_HAL_Driver/Inc/stm32f3xx_ll_exti.h **** /**
 694:Drivers/STM32F3xx_HAL_Driver/Inc/stm32f3xx_ll_exti.h ****   * @}
 695:Drivers/STM32F3xx_HAL_Driver/Inc/stm32f3xx_ll_exti.h ****   */
 696:Drivers/STM32F3xx_HAL_Driver/Inc/stm32f3xx_ll_exti.h **** 
 697:Drivers/STM32F3xx_HAL_Driver/Inc/stm32f3xx_ll_exti.h **** /** @defgroup EXTI_LL_EF_Rising_Trigger_Management Rising_Trigger_Management
 698:Drivers/STM32F3xx_HAL_Driver/Inc/stm32f3xx_ll_exti.h ****   * @{
 699:Drivers/STM32F3xx_HAL_Driver/Inc/stm32f3xx_ll_exti.h ****   */
 700:Drivers/STM32F3xx_HAL_Driver/Inc/stm32f3xx_ll_exti.h **** 
 701:Drivers/STM32F3xx_HAL_Driver/Inc/stm32f3xx_ll_exti.h **** /**
 702:Drivers/STM32F3xx_HAL_Driver/Inc/stm32f3xx_ll_exti.h ****   * @brief  Enable ExtiLine Rising Edge Trigger for Lines in range 0 to 31
 703:Drivers/STM32F3xx_HAL_Driver/Inc/stm32f3xx_ll_exti.h ****   * @note The configurable wakeup lines are edge-triggered. No glitch must be
 704:Drivers/STM32F3xx_HAL_Driver/Inc/stm32f3xx_ll_exti.h ****   *       generated on these lines. If a rising edge on a configurable interrupt
 705:Drivers/STM32F3xx_HAL_Driver/Inc/stm32f3xx_ll_exti.h ****   *       line occurs during a write operation in the EXTI_RTSR register, the
 706:Drivers/STM32F3xx_HAL_Driver/Inc/stm32f3xx_ll_exti.h ****   *       pending bit is not set.
 707:Drivers/STM32F3xx_HAL_Driver/Inc/stm32f3xx_ll_exti.h ****   *       Rising and falling edge triggers can be set for
 708:Drivers/STM32F3xx_HAL_Driver/Inc/stm32f3xx_ll_exti.h ****   *       the same interrupt line. In this case, both generate a trigger
 709:Drivers/STM32F3xx_HAL_Driver/Inc/stm32f3xx_ll_exti.h ****   *       condition.
 710:Drivers/STM32F3xx_HAL_Driver/Inc/stm32f3xx_ll_exti.h ****   * @rmtoll RTSR        RTx           LL_EXTI_EnableRisingTrig_0_31
 711:Drivers/STM32F3xx_HAL_Driver/Inc/stm32f3xx_ll_exti.h ****   * @param  ExtiLine This parameter can be a combination of the following values:
 712:Drivers/STM32F3xx_HAL_Driver/Inc/stm32f3xx_ll_exti.h ****   *         @arg @ref LL_EXTI_LINE_0
 713:Drivers/STM32F3xx_HAL_Driver/Inc/stm32f3xx_ll_exti.h ****   *         @arg @ref LL_EXTI_LINE_1
 714:Drivers/STM32F3xx_HAL_Driver/Inc/stm32f3xx_ll_exti.h ****   *         @arg @ref LL_EXTI_LINE_2
 715:Drivers/STM32F3xx_HAL_Driver/Inc/stm32f3xx_ll_exti.h ****   *         @arg @ref LL_EXTI_LINE_3
 716:Drivers/STM32F3xx_HAL_Driver/Inc/stm32f3xx_ll_exti.h ****   *         @arg @ref LL_EXTI_LINE_4
 717:Drivers/STM32F3xx_HAL_Driver/Inc/stm32f3xx_ll_exti.h ****   *         @arg @ref LL_EXTI_LINE_5
 718:Drivers/STM32F3xx_HAL_Driver/Inc/stm32f3xx_ll_exti.h ****   *         @arg @ref LL_EXTI_LINE_6
 719:Drivers/STM32F3xx_HAL_Driver/Inc/stm32f3xx_ll_exti.h ****   *         @arg @ref LL_EXTI_LINE_7
 720:Drivers/STM32F3xx_HAL_Driver/Inc/stm32f3xx_ll_exti.h ****   *         @arg @ref LL_EXTI_LINE_8
 721:Drivers/STM32F3xx_HAL_Driver/Inc/stm32f3xx_ll_exti.h ****   *         @arg @ref LL_EXTI_LINE_9
 722:Drivers/STM32F3xx_HAL_Driver/Inc/stm32f3xx_ll_exti.h ****   *         @arg @ref LL_EXTI_LINE_10
 723:Drivers/STM32F3xx_HAL_Driver/Inc/stm32f3xx_ll_exti.h ****   *         @arg @ref LL_EXTI_LINE_11
 724:Drivers/STM32F3xx_HAL_Driver/Inc/stm32f3xx_ll_exti.h ****   *         @arg @ref LL_EXTI_LINE_12
 725:Drivers/STM32F3xx_HAL_Driver/Inc/stm32f3xx_ll_exti.h ****   *         @arg @ref LL_EXTI_LINE_13
 726:Drivers/STM32F3xx_HAL_Driver/Inc/stm32f3xx_ll_exti.h ****   *         @arg @ref LL_EXTI_LINE_14
 727:Drivers/STM32F3xx_HAL_Driver/Inc/stm32f3xx_ll_exti.h ****   *         @arg @ref LL_EXTI_LINE_15
 728:Drivers/STM32F3xx_HAL_Driver/Inc/stm32f3xx_ll_exti.h ****   *         @arg @ref LL_EXTI_LINE_16
 729:Drivers/STM32F3xx_HAL_Driver/Inc/stm32f3xx_ll_exti.h ****   *         @arg @ref LL_EXTI_LINE_18
ARM GAS  /tmp/ccc7EsBH.s 			page 20


 730:Drivers/STM32F3xx_HAL_Driver/Inc/stm32f3xx_ll_exti.h ****   *         @arg @ref LL_EXTI_LINE_19
 731:Drivers/STM32F3xx_HAL_Driver/Inc/stm32f3xx_ll_exti.h ****   *         @arg @ref LL_EXTI_LINE_20
 732:Drivers/STM32F3xx_HAL_Driver/Inc/stm32f3xx_ll_exti.h ****   *         @arg @ref LL_EXTI_LINE_21
 733:Drivers/STM32F3xx_HAL_Driver/Inc/stm32f3xx_ll_exti.h ****   *         @arg @ref LL_EXTI_LINE_22
 734:Drivers/STM32F3xx_HAL_Driver/Inc/stm32f3xx_ll_exti.h ****   *         @arg @ref LL_EXTI_LINE_29
 735:Drivers/STM32F3xx_HAL_Driver/Inc/stm32f3xx_ll_exti.h ****   *         @arg @ref LL_EXTI_LINE_30
 736:Drivers/STM32F3xx_HAL_Driver/Inc/stm32f3xx_ll_exti.h ****   *         @arg @ref LL_EXTI_LINE_31
 737:Drivers/STM32F3xx_HAL_Driver/Inc/stm32f3xx_ll_exti.h ****   * @note   Please check each device line mapping for EXTI Line availability
 738:Drivers/STM32F3xx_HAL_Driver/Inc/stm32f3xx_ll_exti.h ****   * @retval None
 739:Drivers/STM32F3xx_HAL_Driver/Inc/stm32f3xx_ll_exti.h ****   */
 740:Drivers/STM32F3xx_HAL_Driver/Inc/stm32f3xx_ll_exti.h **** __STATIC_INLINE void LL_EXTI_EnableRisingTrig_0_31(uint32_t ExtiLine)
 741:Drivers/STM32F3xx_HAL_Driver/Inc/stm32f3xx_ll_exti.h **** {
 742:Drivers/STM32F3xx_HAL_Driver/Inc/stm32f3xx_ll_exti.h ****   SET_BIT(EXTI->RTSR, ExtiLine);
 743:Drivers/STM32F3xx_HAL_Driver/Inc/stm32f3xx_ll_exti.h **** 
 744:Drivers/STM32F3xx_HAL_Driver/Inc/stm32f3xx_ll_exti.h **** }
 745:Drivers/STM32F3xx_HAL_Driver/Inc/stm32f3xx_ll_exti.h **** 
 746:Drivers/STM32F3xx_HAL_Driver/Inc/stm32f3xx_ll_exti.h **** #if defined(EXTI_32_63_SUPPORT)
 747:Drivers/STM32F3xx_HAL_Driver/Inc/stm32f3xx_ll_exti.h **** /**
 748:Drivers/STM32F3xx_HAL_Driver/Inc/stm32f3xx_ll_exti.h ****   * @brief  Enable ExtiLine Rising Edge Trigger for Lines in range 32 to 63
 749:Drivers/STM32F3xx_HAL_Driver/Inc/stm32f3xx_ll_exti.h ****   * @note The configurable wakeup lines are edge-triggered. No glitch must be
 750:Drivers/STM32F3xx_HAL_Driver/Inc/stm32f3xx_ll_exti.h ****   *       generated on these lines. If a rising edge on a configurable interrupt
 751:Drivers/STM32F3xx_HAL_Driver/Inc/stm32f3xx_ll_exti.h ****   *       line occurs during a write operation in the EXTI_RTSR register, the
 752:Drivers/STM32F3xx_HAL_Driver/Inc/stm32f3xx_ll_exti.h ****   *       pending bit is not set.Rising and falling edge triggers can be set for
 753:Drivers/STM32F3xx_HAL_Driver/Inc/stm32f3xx_ll_exti.h ****   *       the same interrupt line. In this case, both generate a trigger
 754:Drivers/STM32F3xx_HAL_Driver/Inc/stm32f3xx_ll_exti.h ****   *       condition.
 755:Drivers/STM32F3xx_HAL_Driver/Inc/stm32f3xx_ll_exti.h ****   * @rmtoll RTSR2        RTx           LL_EXTI_EnableRisingTrig_32_63
 756:Drivers/STM32F3xx_HAL_Driver/Inc/stm32f3xx_ll_exti.h ****   * @param  ExtiLine This parameter can be a combination of the following values:
 757:Drivers/STM32F3xx_HAL_Driver/Inc/stm32f3xx_ll_exti.h ****   *         @arg @ref LL_EXTI_LINE_35
 758:Drivers/STM32F3xx_HAL_Driver/Inc/stm32f3xx_ll_exti.h ****   *         @arg @ref LL_EXTI_LINE_36
 759:Drivers/STM32F3xx_HAL_Driver/Inc/stm32f3xx_ll_exti.h ****   *         @arg @ref LL_EXTI_LINE_37
 760:Drivers/STM32F3xx_HAL_Driver/Inc/stm32f3xx_ll_exti.h ****   *         @arg @ref LL_EXTI_LINE_38
 761:Drivers/STM32F3xx_HAL_Driver/Inc/stm32f3xx_ll_exti.h ****   * @retval None
 762:Drivers/STM32F3xx_HAL_Driver/Inc/stm32f3xx_ll_exti.h ****   */
 763:Drivers/STM32F3xx_HAL_Driver/Inc/stm32f3xx_ll_exti.h **** __STATIC_INLINE void LL_EXTI_EnableRisingTrig_32_63(uint32_t ExtiLine)
 764:Drivers/STM32F3xx_HAL_Driver/Inc/stm32f3xx_ll_exti.h **** {
 765:Drivers/STM32F3xx_HAL_Driver/Inc/stm32f3xx_ll_exti.h ****   SET_BIT(EXTI->RTSR2, ExtiLine);
 766:Drivers/STM32F3xx_HAL_Driver/Inc/stm32f3xx_ll_exti.h **** }
 767:Drivers/STM32F3xx_HAL_Driver/Inc/stm32f3xx_ll_exti.h **** #endif
 768:Drivers/STM32F3xx_HAL_Driver/Inc/stm32f3xx_ll_exti.h **** 
 769:Drivers/STM32F3xx_HAL_Driver/Inc/stm32f3xx_ll_exti.h **** /**
 770:Drivers/STM32F3xx_HAL_Driver/Inc/stm32f3xx_ll_exti.h ****   * @brief  Disable ExtiLine Rising Edge Trigger for Lines in range 0 to 31
 771:Drivers/STM32F3xx_HAL_Driver/Inc/stm32f3xx_ll_exti.h ****   * @note The configurable wakeup lines are edge-triggered. No glitch must be
 772:Drivers/STM32F3xx_HAL_Driver/Inc/stm32f3xx_ll_exti.h ****   *       generated on these lines. If a rising edge on a configurable interrupt
 773:Drivers/STM32F3xx_HAL_Driver/Inc/stm32f3xx_ll_exti.h ****   *       line occurs during a write operation in the EXTI_RTSR register, the
 774:Drivers/STM32F3xx_HAL_Driver/Inc/stm32f3xx_ll_exti.h ****   *       pending bit is not set.
 775:Drivers/STM32F3xx_HAL_Driver/Inc/stm32f3xx_ll_exti.h ****   *       Rising and falling edge triggers can be set for
 776:Drivers/STM32F3xx_HAL_Driver/Inc/stm32f3xx_ll_exti.h ****   *       the same interrupt line. In this case, both generate a trigger
 777:Drivers/STM32F3xx_HAL_Driver/Inc/stm32f3xx_ll_exti.h ****   *       condition.
 778:Drivers/STM32F3xx_HAL_Driver/Inc/stm32f3xx_ll_exti.h ****   * @rmtoll RTSR        RTx           LL_EXTI_DisableRisingTrig_0_31
 779:Drivers/STM32F3xx_HAL_Driver/Inc/stm32f3xx_ll_exti.h ****   * @param  ExtiLine This parameter can be a combination of the following values:
 780:Drivers/STM32F3xx_HAL_Driver/Inc/stm32f3xx_ll_exti.h ****   *         @arg @ref LL_EXTI_LINE_0
 781:Drivers/STM32F3xx_HAL_Driver/Inc/stm32f3xx_ll_exti.h ****   *         @arg @ref LL_EXTI_LINE_1
 782:Drivers/STM32F3xx_HAL_Driver/Inc/stm32f3xx_ll_exti.h ****   *         @arg @ref LL_EXTI_LINE_2
 783:Drivers/STM32F3xx_HAL_Driver/Inc/stm32f3xx_ll_exti.h ****   *         @arg @ref LL_EXTI_LINE_3
 784:Drivers/STM32F3xx_HAL_Driver/Inc/stm32f3xx_ll_exti.h ****   *         @arg @ref LL_EXTI_LINE_4
 785:Drivers/STM32F3xx_HAL_Driver/Inc/stm32f3xx_ll_exti.h ****   *         @arg @ref LL_EXTI_LINE_5
 786:Drivers/STM32F3xx_HAL_Driver/Inc/stm32f3xx_ll_exti.h ****   *         @arg @ref LL_EXTI_LINE_6
ARM GAS  /tmp/ccc7EsBH.s 			page 21


 787:Drivers/STM32F3xx_HAL_Driver/Inc/stm32f3xx_ll_exti.h ****   *         @arg @ref LL_EXTI_LINE_7
 788:Drivers/STM32F3xx_HAL_Driver/Inc/stm32f3xx_ll_exti.h ****   *         @arg @ref LL_EXTI_LINE_8
 789:Drivers/STM32F3xx_HAL_Driver/Inc/stm32f3xx_ll_exti.h ****   *         @arg @ref LL_EXTI_LINE_9
 790:Drivers/STM32F3xx_HAL_Driver/Inc/stm32f3xx_ll_exti.h ****   *         @arg @ref LL_EXTI_LINE_10
 791:Drivers/STM32F3xx_HAL_Driver/Inc/stm32f3xx_ll_exti.h ****   *         @arg @ref LL_EXTI_LINE_11
 792:Drivers/STM32F3xx_HAL_Driver/Inc/stm32f3xx_ll_exti.h ****   *         @arg @ref LL_EXTI_LINE_12
 793:Drivers/STM32F3xx_HAL_Driver/Inc/stm32f3xx_ll_exti.h ****   *         @arg @ref LL_EXTI_LINE_13
 794:Drivers/STM32F3xx_HAL_Driver/Inc/stm32f3xx_ll_exti.h ****   *         @arg @ref LL_EXTI_LINE_14
 795:Drivers/STM32F3xx_HAL_Driver/Inc/stm32f3xx_ll_exti.h ****   *         @arg @ref LL_EXTI_LINE_15
 796:Drivers/STM32F3xx_HAL_Driver/Inc/stm32f3xx_ll_exti.h ****   *         @arg @ref LL_EXTI_LINE_16
 797:Drivers/STM32F3xx_HAL_Driver/Inc/stm32f3xx_ll_exti.h ****   *         @arg @ref LL_EXTI_LINE_18
 798:Drivers/STM32F3xx_HAL_Driver/Inc/stm32f3xx_ll_exti.h ****   *         @arg @ref LL_EXTI_LINE_19
 799:Drivers/STM32F3xx_HAL_Driver/Inc/stm32f3xx_ll_exti.h ****   *         @arg @ref LL_EXTI_LINE_20
 800:Drivers/STM32F3xx_HAL_Driver/Inc/stm32f3xx_ll_exti.h ****   *         @arg @ref LL_EXTI_LINE_21
 801:Drivers/STM32F3xx_HAL_Driver/Inc/stm32f3xx_ll_exti.h ****   *         @arg @ref LL_EXTI_LINE_22
 802:Drivers/STM32F3xx_HAL_Driver/Inc/stm32f3xx_ll_exti.h ****   *         @arg @ref LL_EXTI_LINE_29
 803:Drivers/STM32F3xx_HAL_Driver/Inc/stm32f3xx_ll_exti.h ****   *         @arg @ref LL_EXTI_LINE_30
 804:Drivers/STM32F3xx_HAL_Driver/Inc/stm32f3xx_ll_exti.h ****   *         @arg @ref LL_EXTI_LINE_31
 805:Drivers/STM32F3xx_HAL_Driver/Inc/stm32f3xx_ll_exti.h ****   * @note   Please check each device line mapping for EXTI Line availability
 806:Drivers/STM32F3xx_HAL_Driver/Inc/stm32f3xx_ll_exti.h ****   * @retval None
 807:Drivers/STM32F3xx_HAL_Driver/Inc/stm32f3xx_ll_exti.h ****   */
 808:Drivers/STM32F3xx_HAL_Driver/Inc/stm32f3xx_ll_exti.h **** __STATIC_INLINE void LL_EXTI_DisableRisingTrig_0_31(uint32_t ExtiLine)
 809:Drivers/STM32F3xx_HAL_Driver/Inc/stm32f3xx_ll_exti.h **** {
 810:Drivers/STM32F3xx_HAL_Driver/Inc/stm32f3xx_ll_exti.h ****   CLEAR_BIT(EXTI->RTSR, ExtiLine);
 811:Drivers/STM32F3xx_HAL_Driver/Inc/stm32f3xx_ll_exti.h **** 
 812:Drivers/STM32F3xx_HAL_Driver/Inc/stm32f3xx_ll_exti.h **** }
 813:Drivers/STM32F3xx_HAL_Driver/Inc/stm32f3xx_ll_exti.h **** 
 814:Drivers/STM32F3xx_HAL_Driver/Inc/stm32f3xx_ll_exti.h **** #if defined(EXTI_32_63_SUPPORT)
 815:Drivers/STM32F3xx_HAL_Driver/Inc/stm32f3xx_ll_exti.h **** /**
 816:Drivers/STM32F3xx_HAL_Driver/Inc/stm32f3xx_ll_exti.h ****   * @brief  Disable ExtiLine Rising Edge Trigger for Lines in range 32 to 63
 817:Drivers/STM32F3xx_HAL_Driver/Inc/stm32f3xx_ll_exti.h ****   * @note The configurable wakeup lines are edge-triggered. No glitch must be
 818:Drivers/STM32F3xx_HAL_Driver/Inc/stm32f3xx_ll_exti.h ****   *       generated on these lines. If a rising edge on a configurable interrupt
 819:Drivers/STM32F3xx_HAL_Driver/Inc/stm32f3xx_ll_exti.h ****   *       line occurs during a write operation in the EXTI_RTSR register, the
 820:Drivers/STM32F3xx_HAL_Driver/Inc/stm32f3xx_ll_exti.h ****   *       pending bit is not set.
 821:Drivers/STM32F3xx_HAL_Driver/Inc/stm32f3xx_ll_exti.h ****   *       Rising and falling edge triggers can be set for
 822:Drivers/STM32F3xx_HAL_Driver/Inc/stm32f3xx_ll_exti.h ****   *       the same interrupt line. In this case, both generate a trigger
 823:Drivers/STM32F3xx_HAL_Driver/Inc/stm32f3xx_ll_exti.h ****   *       condition.
 824:Drivers/STM32F3xx_HAL_Driver/Inc/stm32f3xx_ll_exti.h ****   * @rmtoll RTSR2        RTx           LL_EXTI_DisableRisingTrig_32_63
 825:Drivers/STM32F3xx_HAL_Driver/Inc/stm32f3xx_ll_exti.h ****   * @param  ExtiLine This parameter can be a combination of the following values:
 826:Drivers/STM32F3xx_HAL_Driver/Inc/stm32f3xx_ll_exti.h ****   *         @arg @ref LL_EXTI_LINE_35
 827:Drivers/STM32F3xx_HAL_Driver/Inc/stm32f3xx_ll_exti.h ****   *         @arg @ref LL_EXTI_LINE_36
 828:Drivers/STM32F3xx_HAL_Driver/Inc/stm32f3xx_ll_exti.h ****   *         @arg @ref LL_EXTI_LINE_37
 829:Drivers/STM32F3xx_HAL_Driver/Inc/stm32f3xx_ll_exti.h ****   *         @arg @ref LL_EXTI_LINE_38
 830:Drivers/STM32F3xx_HAL_Driver/Inc/stm32f3xx_ll_exti.h ****   * @retval None
 831:Drivers/STM32F3xx_HAL_Driver/Inc/stm32f3xx_ll_exti.h ****   */
 832:Drivers/STM32F3xx_HAL_Driver/Inc/stm32f3xx_ll_exti.h **** __STATIC_INLINE void LL_EXTI_DisableRisingTrig_32_63(uint32_t ExtiLine)
 833:Drivers/STM32F3xx_HAL_Driver/Inc/stm32f3xx_ll_exti.h **** {
 834:Drivers/STM32F3xx_HAL_Driver/Inc/stm32f3xx_ll_exti.h ****   CLEAR_BIT(EXTI->RTSR2, ExtiLine);
 835:Drivers/STM32F3xx_HAL_Driver/Inc/stm32f3xx_ll_exti.h **** }
 836:Drivers/STM32F3xx_HAL_Driver/Inc/stm32f3xx_ll_exti.h **** #endif
 837:Drivers/STM32F3xx_HAL_Driver/Inc/stm32f3xx_ll_exti.h **** 
 838:Drivers/STM32F3xx_HAL_Driver/Inc/stm32f3xx_ll_exti.h **** /**
 839:Drivers/STM32F3xx_HAL_Driver/Inc/stm32f3xx_ll_exti.h ****   * @brief  Check if rising edge trigger is enabled for Lines in range 0 to 31
 840:Drivers/STM32F3xx_HAL_Driver/Inc/stm32f3xx_ll_exti.h ****   * @rmtoll RTSR        RTx           LL_EXTI_IsEnabledRisingTrig_0_31
 841:Drivers/STM32F3xx_HAL_Driver/Inc/stm32f3xx_ll_exti.h ****   * @param  ExtiLine This parameter can be a combination of the following values:
 842:Drivers/STM32F3xx_HAL_Driver/Inc/stm32f3xx_ll_exti.h ****   *         @arg @ref LL_EXTI_LINE_0
 843:Drivers/STM32F3xx_HAL_Driver/Inc/stm32f3xx_ll_exti.h ****   *         @arg @ref LL_EXTI_LINE_1
ARM GAS  /tmp/ccc7EsBH.s 			page 22


 844:Drivers/STM32F3xx_HAL_Driver/Inc/stm32f3xx_ll_exti.h ****   *         @arg @ref LL_EXTI_LINE_2
 845:Drivers/STM32F3xx_HAL_Driver/Inc/stm32f3xx_ll_exti.h ****   *         @arg @ref LL_EXTI_LINE_3
 846:Drivers/STM32F3xx_HAL_Driver/Inc/stm32f3xx_ll_exti.h ****   *         @arg @ref LL_EXTI_LINE_4
 847:Drivers/STM32F3xx_HAL_Driver/Inc/stm32f3xx_ll_exti.h ****   *         @arg @ref LL_EXTI_LINE_5
 848:Drivers/STM32F3xx_HAL_Driver/Inc/stm32f3xx_ll_exti.h ****   *         @arg @ref LL_EXTI_LINE_6
 849:Drivers/STM32F3xx_HAL_Driver/Inc/stm32f3xx_ll_exti.h ****   *         @arg @ref LL_EXTI_LINE_7
 850:Drivers/STM32F3xx_HAL_Driver/Inc/stm32f3xx_ll_exti.h ****   *         @arg @ref LL_EXTI_LINE_8
 851:Drivers/STM32F3xx_HAL_Driver/Inc/stm32f3xx_ll_exti.h ****   *         @arg @ref LL_EXTI_LINE_9
 852:Drivers/STM32F3xx_HAL_Driver/Inc/stm32f3xx_ll_exti.h ****   *         @arg @ref LL_EXTI_LINE_10
 853:Drivers/STM32F3xx_HAL_Driver/Inc/stm32f3xx_ll_exti.h ****   *         @arg @ref LL_EXTI_LINE_11
 854:Drivers/STM32F3xx_HAL_Driver/Inc/stm32f3xx_ll_exti.h ****   *         @arg @ref LL_EXTI_LINE_12
 855:Drivers/STM32F3xx_HAL_Driver/Inc/stm32f3xx_ll_exti.h ****   *         @arg @ref LL_EXTI_LINE_13
 856:Drivers/STM32F3xx_HAL_Driver/Inc/stm32f3xx_ll_exti.h ****   *         @arg @ref LL_EXTI_LINE_14
 857:Drivers/STM32F3xx_HAL_Driver/Inc/stm32f3xx_ll_exti.h ****   *         @arg @ref LL_EXTI_LINE_15
 858:Drivers/STM32F3xx_HAL_Driver/Inc/stm32f3xx_ll_exti.h ****   *         @arg @ref LL_EXTI_LINE_16
 859:Drivers/STM32F3xx_HAL_Driver/Inc/stm32f3xx_ll_exti.h ****   *         @arg @ref LL_EXTI_LINE_18
 860:Drivers/STM32F3xx_HAL_Driver/Inc/stm32f3xx_ll_exti.h ****   *         @arg @ref LL_EXTI_LINE_19
 861:Drivers/STM32F3xx_HAL_Driver/Inc/stm32f3xx_ll_exti.h ****   *         @arg @ref LL_EXTI_LINE_20
 862:Drivers/STM32F3xx_HAL_Driver/Inc/stm32f3xx_ll_exti.h ****   *         @arg @ref LL_EXTI_LINE_21
 863:Drivers/STM32F3xx_HAL_Driver/Inc/stm32f3xx_ll_exti.h ****   *         @arg @ref LL_EXTI_LINE_22
 864:Drivers/STM32F3xx_HAL_Driver/Inc/stm32f3xx_ll_exti.h ****   *         @arg @ref LL_EXTI_LINE_29
 865:Drivers/STM32F3xx_HAL_Driver/Inc/stm32f3xx_ll_exti.h ****   *         @arg @ref LL_EXTI_LINE_30
 866:Drivers/STM32F3xx_HAL_Driver/Inc/stm32f3xx_ll_exti.h ****   *         @arg @ref LL_EXTI_LINE_31
 867:Drivers/STM32F3xx_HAL_Driver/Inc/stm32f3xx_ll_exti.h ****   * @note   Please check each device line mapping for EXTI Line availability
 868:Drivers/STM32F3xx_HAL_Driver/Inc/stm32f3xx_ll_exti.h ****   * @retval State of bit (1 or 0).
 869:Drivers/STM32F3xx_HAL_Driver/Inc/stm32f3xx_ll_exti.h ****   */
 870:Drivers/STM32F3xx_HAL_Driver/Inc/stm32f3xx_ll_exti.h **** __STATIC_INLINE uint32_t LL_EXTI_IsEnabledRisingTrig_0_31(uint32_t ExtiLine)
 871:Drivers/STM32F3xx_HAL_Driver/Inc/stm32f3xx_ll_exti.h **** {
 872:Drivers/STM32F3xx_HAL_Driver/Inc/stm32f3xx_ll_exti.h ****   return (READ_BIT(EXTI->RTSR, ExtiLine) == (ExtiLine));
 873:Drivers/STM32F3xx_HAL_Driver/Inc/stm32f3xx_ll_exti.h **** }
 874:Drivers/STM32F3xx_HAL_Driver/Inc/stm32f3xx_ll_exti.h **** 
 875:Drivers/STM32F3xx_HAL_Driver/Inc/stm32f3xx_ll_exti.h **** #if defined(EXTI_32_63_SUPPORT)
 876:Drivers/STM32F3xx_HAL_Driver/Inc/stm32f3xx_ll_exti.h **** /**
 877:Drivers/STM32F3xx_HAL_Driver/Inc/stm32f3xx_ll_exti.h ****   * @brief  Check if rising edge trigger is enabled for Lines in range 32 to 63
 878:Drivers/STM32F3xx_HAL_Driver/Inc/stm32f3xx_ll_exti.h ****   * @rmtoll RTSR2        RTx           LL_EXTI_IsEnabledRisingTrig_32_63
 879:Drivers/STM32F3xx_HAL_Driver/Inc/stm32f3xx_ll_exti.h ****   * @param  ExtiLine This parameter can be a combination of the following values:
 880:Drivers/STM32F3xx_HAL_Driver/Inc/stm32f3xx_ll_exti.h ****   *         @arg @ref LL_EXTI_LINE_35
 881:Drivers/STM32F3xx_HAL_Driver/Inc/stm32f3xx_ll_exti.h ****   *         @arg @ref LL_EXTI_LINE_36
 882:Drivers/STM32F3xx_HAL_Driver/Inc/stm32f3xx_ll_exti.h ****   *         @arg @ref LL_EXTI_LINE_37
 883:Drivers/STM32F3xx_HAL_Driver/Inc/stm32f3xx_ll_exti.h ****   *         @arg @ref LL_EXTI_LINE_38
 884:Drivers/STM32F3xx_HAL_Driver/Inc/stm32f3xx_ll_exti.h ****   * @retval State of bit (1 or 0).
 885:Drivers/STM32F3xx_HAL_Driver/Inc/stm32f3xx_ll_exti.h ****   */
 886:Drivers/STM32F3xx_HAL_Driver/Inc/stm32f3xx_ll_exti.h **** __STATIC_INLINE uint32_t LL_EXTI_IsEnabledRisingTrig_32_63(uint32_t ExtiLine)
 887:Drivers/STM32F3xx_HAL_Driver/Inc/stm32f3xx_ll_exti.h **** {
 888:Drivers/STM32F3xx_HAL_Driver/Inc/stm32f3xx_ll_exti.h ****   return (READ_BIT(EXTI->RTSR2, ExtiLine) == (ExtiLine));
 889:Drivers/STM32F3xx_HAL_Driver/Inc/stm32f3xx_ll_exti.h **** }
 890:Drivers/STM32F3xx_HAL_Driver/Inc/stm32f3xx_ll_exti.h **** #endif
 891:Drivers/STM32F3xx_HAL_Driver/Inc/stm32f3xx_ll_exti.h **** 
 892:Drivers/STM32F3xx_HAL_Driver/Inc/stm32f3xx_ll_exti.h **** /**
 893:Drivers/STM32F3xx_HAL_Driver/Inc/stm32f3xx_ll_exti.h ****   * @}
 894:Drivers/STM32F3xx_HAL_Driver/Inc/stm32f3xx_ll_exti.h ****   */
 895:Drivers/STM32F3xx_HAL_Driver/Inc/stm32f3xx_ll_exti.h **** 
 896:Drivers/STM32F3xx_HAL_Driver/Inc/stm32f3xx_ll_exti.h **** /** @defgroup EXTI_LL_EF_Falling_Trigger_Management Falling_Trigger_Management
 897:Drivers/STM32F3xx_HAL_Driver/Inc/stm32f3xx_ll_exti.h ****   * @{
 898:Drivers/STM32F3xx_HAL_Driver/Inc/stm32f3xx_ll_exti.h ****   */
 899:Drivers/STM32F3xx_HAL_Driver/Inc/stm32f3xx_ll_exti.h **** 
 900:Drivers/STM32F3xx_HAL_Driver/Inc/stm32f3xx_ll_exti.h **** /**
ARM GAS  /tmp/ccc7EsBH.s 			page 23


 901:Drivers/STM32F3xx_HAL_Driver/Inc/stm32f3xx_ll_exti.h ****   * @brief  Enable ExtiLine Falling Edge Trigger for Lines in range 0 to 31
 902:Drivers/STM32F3xx_HAL_Driver/Inc/stm32f3xx_ll_exti.h ****   * @note The configurable wakeup lines are edge-triggered. No glitch must be
 903:Drivers/STM32F3xx_HAL_Driver/Inc/stm32f3xx_ll_exti.h ****   *       generated on these lines. If a falling edge on a configurable interrupt
 904:Drivers/STM32F3xx_HAL_Driver/Inc/stm32f3xx_ll_exti.h ****   *       line occurs during a write operation in the EXTI_FTSR register, the
 905:Drivers/STM32F3xx_HAL_Driver/Inc/stm32f3xx_ll_exti.h ****   *       pending bit is not set.
 906:Drivers/STM32F3xx_HAL_Driver/Inc/stm32f3xx_ll_exti.h ****   *       Rising and falling edge triggers can be set for
 907:Drivers/STM32F3xx_HAL_Driver/Inc/stm32f3xx_ll_exti.h ****   *       the same interrupt line. In this case, both generate a trigger
 908:Drivers/STM32F3xx_HAL_Driver/Inc/stm32f3xx_ll_exti.h ****   *       condition.
 909:Drivers/STM32F3xx_HAL_Driver/Inc/stm32f3xx_ll_exti.h ****   * @rmtoll FTSR        FTx           LL_EXTI_EnableFallingTrig_0_31
 910:Drivers/STM32F3xx_HAL_Driver/Inc/stm32f3xx_ll_exti.h ****   * @param  ExtiLine This parameter can be a combination of the following values:
 911:Drivers/STM32F3xx_HAL_Driver/Inc/stm32f3xx_ll_exti.h ****   *         @arg @ref LL_EXTI_LINE_0
 912:Drivers/STM32F3xx_HAL_Driver/Inc/stm32f3xx_ll_exti.h ****   *         @arg @ref LL_EXTI_LINE_1
 913:Drivers/STM32F3xx_HAL_Driver/Inc/stm32f3xx_ll_exti.h ****   *         @arg @ref LL_EXTI_LINE_2
 914:Drivers/STM32F3xx_HAL_Driver/Inc/stm32f3xx_ll_exti.h ****   *         @arg @ref LL_EXTI_LINE_3
 915:Drivers/STM32F3xx_HAL_Driver/Inc/stm32f3xx_ll_exti.h ****   *         @arg @ref LL_EXTI_LINE_4
 916:Drivers/STM32F3xx_HAL_Driver/Inc/stm32f3xx_ll_exti.h ****   *         @arg @ref LL_EXTI_LINE_5
 917:Drivers/STM32F3xx_HAL_Driver/Inc/stm32f3xx_ll_exti.h ****   *         @arg @ref LL_EXTI_LINE_6
 918:Drivers/STM32F3xx_HAL_Driver/Inc/stm32f3xx_ll_exti.h ****   *         @arg @ref LL_EXTI_LINE_7
 919:Drivers/STM32F3xx_HAL_Driver/Inc/stm32f3xx_ll_exti.h ****   *         @arg @ref LL_EXTI_LINE_8
 920:Drivers/STM32F3xx_HAL_Driver/Inc/stm32f3xx_ll_exti.h ****   *         @arg @ref LL_EXTI_LINE_9
 921:Drivers/STM32F3xx_HAL_Driver/Inc/stm32f3xx_ll_exti.h ****   *         @arg @ref LL_EXTI_LINE_10
 922:Drivers/STM32F3xx_HAL_Driver/Inc/stm32f3xx_ll_exti.h ****   *         @arg @ref LL_EXTI_LINE_11
 923:Drivers/STM32F3xx_HAL_Driver/Inc/stm32f3xx_ll_exti.h ****   *         @arg @ref LL_EXTI_LINE_12
 924:Drivers/STM32F3xx_HAL_Driver/Inc/stm32f3xx_ll_exti.h ****   *         @arg @ref LL_EXTI_LINE_13
 925:Drivers/STM32F3xx_HAL_Driver/Inc/stm32f3xx_ll_exti.h ****   *         @arg @ref LL_EXTI_LINE_14
 926:Drivers/STM32F3xx_HAL_Driver/Inc/stm32f3xx_ll_exti.h ****   *         @arg @ref LL_EXTI_LINE_15
 927:Drivers/STM32F3xx_HAL_Driver/Inc/stm32f3xx_ll_exti.h ****   *         @arg @ref LL_EXTI_LINE_16
 928:Drivers/STM32F3xx_HAL_Driver/Inc/stm32f3xx_ll_exti.h ****   *         @arg @ref LL_EXTI_LINE_18
 929:Drivers/STM32F3xx_HAL_Driver/Inc/stm32f3xx_ll_exti.h ****   *         @arg @ref LL_EXTI_LINE_19
 930:Drivers/STM32F3xx_HAL_Driver/Inc/stm32f3xx_ll_exti.h ****   *         @arg @ref LL_EXTI_LINE_20
 931:Drivers/STM32F3xx_HAL_Driver/Inc/stm32f3xx_ll_exti.h ****   *         @arg @ref LL_EXTI_LINE_21
 932:Drivers/STM32F3xx_HAL_Driver/Inc/stm32f3xx_ll_exti.h ****   *         @arg @ref LL_EXTI_LINE_22
 933:Drivers/STM32F3xx_HAL_Driver/Inc/stm32f3xx_ll_exti.h ****   *         @arg @ref LL_EXTI_LINE_29
 934:Drivers/STM32F3xx_HAL_Driver/Inc/stm32f3xx_ll_exti.h ****   *         @arg @ref LL_EXTI_LINE_30
 935:Drivers/STM32F3xx_HAL_Driver/Inc/stm32f3xx_ll_exti.h ****   *         @arg @ref LL_EXTI_LINE_31
 936:Drivers/STM32F3xx_HAL_Driver/Inc/stm32f3xx_ll_exti.h ****   * @note   Please check each device line mapping for EXTI Line availability
 937:Drivers/STM32F3xx_HAL_Driver/Inc/stm32f3xx_ll_exti.h ****   * @retval None
 938:Drivers/STM32F3xx_HAL_Driver/Inc/stm32f3xx_ll_exti.h ****   */
 939:Drivers/STM32F3xx_HAL_Driver/Inc/stm32f3xx_ll_exti.h **** __STATIC_INLINE void LL_EXTI_EnableFallingTrig_0_31(uint32_t ExtiLine)
 940:Drivers/STM32F3xx_HAL_Driver/Inc/stm32f3xx_ll_exti.h **** {
 941:Drivers/STM32F3xx_HAL_Driver/Inc/stm32f3xx_ll_exti.h ****   SET_BIT(EXTI->FTSR, ExtiLine);
 942:Drivers/STM32F3xx_HAL_Driver/Inc/stm32f3xx_ll_exti.h **** }
 943:Drivers/STM32F3xx_HAL_Driver/Inc/stm32f3xx_ll_exti.h **** 
 944:Drivers/STM32F3xx_HAL_Driver/Inc/stm32f3xx_ll_exti.h **** #if defined(EXTI_32_63_SUPPORT)
 945:Drivers/STM32F3xx_HAL_Driver/Inc/stm32f3xx_ll_exti.h **** /**
 946:Drivers/STM32F3xx_HAL_Driver/Inc/stm32f3xx_ll_exti.h ****   * @brief  Enable ExtiLine Falling Edge Trigger for Lines in range 32 to 63
 947:Drivers/STM32F3xx_HAL_Driver/Inc/stm32f3xx_ll_exti.h ****   * @note The configurable wakeup lines are edge-triggered. No glitch must be
 948:Drivers/STM32F3xx_HAL_Driver/Inc/stm32f3xx_ll_exti.h ****   *       generated on these lines. If a Falling edge on a configurable interrupt
 949:Drivers/STM32F3xx_HAL_Driver/Inc/stm32f3xx_ll_exti.h ****   *       line occurs during a write operation in the EXTI_FTSR register, the
 950:Drivers/STM32F3xx_HAL_Driver/Inc/stm32f3xx_ll_exti.h ****   *       pending bit is not set.
 951:Drivers/STM32F3xx_HAL_Driver/Inc/stm32f3xx_ll_exti.h ****   *       Rising and falling edge triggers can be set for
 952:Drivers/STM32F3xx_HAL_Driver/Inc/stm32f3xx_ll_exti.h ****   *       the same interrupt line. In this case, both generate a trigger
 953:Drivers/STM32F3xx_HAL_Driver/Inc/stm32f3xx_ll_exti.h ****   *       condition.
 954:Drivers/STM32F3xx_HAL_Driver/Inc/stm32f3xx_ll_exti.h ****   * @rmtoll FTSR2        FTx           LL_EXTI_EnableFallingTrig_32_63
 955:Drivers/STM32F3xx_HAL_Driver/Inc/stm32f3xx_ll_exti.h ****   * @param  ExtiLine This parameter can be a combination of the following values:
 956:Drivers/STM32F3xx_HAL_Driver/Inc/stm32f3xx_ll_exti.h ****   *         @arg @ref LL_EXTI_LINE_35
 957:Drivers/STM32F3xx_HAL_Driver/Inc/stm32f3xx_ll_exti.h ****   *         @arg @ref LL_EXTI_LINE_36
ARM GAS  /tmp/ccc7EsBH.s 			page 24


 958:Drivers/STM32F3xx_HAL_Driver/Inc/stm32f3xx_ll_exti.h ****   *         @arg @ref LL_EXTI_LINE_37
 959:Drivers/STM32F3xx_HAL_Driver/Inc/stm32f3xx_ll_exti.h ****   *         @arg @ref LL_EXTI_LINE_38
 960:Drivers/STM32F3xx_HAL_Driver/Inc/stm32f3xx_ll_exti.h ****   * @retval None
 961:Drivers/STM32F3xx_HAL_Driver/Inc/stm32f3xx_ll_exti.h ****   */
 962:Drivers/STM32F3xx_HAL_Driver/Inc/stm32f3xx_ll_exti.h **** __STATIC_INLINE void LL_EXTI_EnableFallingTrig_32_63(uint32_t ExtiLine)
 963:Drivers/STM32F3xx_HAL_Driver/Inc/stm32f3xx_ll_exti.h **** {
 964:Drivers/STM32F3xx_HAL_Driver/Inc/stm32f3xx_ll_exti.h ****   SET_BIT(EXTI->FTSR2, ExtiLine);
 965:Drivers/STM32F3xx_HAL_Driver/Inc/stm32f3xx_ll_exti.h **** }
 966:Drivers/STM32F3xx_HAL_Driver/Inc/stm32f3xx_ll_exti.h **** #endif
 967:Drivers/STM32F3xx_HAL_Driver/Inc/stm32f3xx_ll_exti.h **** 
 968:Drivers/STM32F3xx_HAL_Driver/Inc/stm32f3xx_ll_exti.h **** /**
 969:Drivers/STM32F3xx_HAL_Driver/Inc/stm32f3xx_ll_exti.h ****   * @brief  Disable ExtiLine Falling Edge Trigger for Lines in range 0 to 31
 970:Drivers/STM32F3xx_HAL_Driver/Inc/stm32f3xx_ll_exti.h ****   * @note The configurable wakeup lines are edge-triggered. No glitch must be
 971:Drivers/STM32F3xx_HAL_Driver/Inc/stm32f3xx_ll_exti.h ****   *       generated on these lines. If a Falling edge on a configurable interrupt
 972:Drivers/STM32F3xx_HAL_Driver/Inc/stm32f3xx_ll_exti.h ****   *       line occurs during a write operation in the EXTI_FTSR register, the
 973:Drivers/STM32F3xx_HAL_Driver/Inc/stm32f3xx_ll_exti.h ****   *       pending bit is not set.
 974:Drivers/STM32F3xx_HAL_Driver/Inc/stm32f3xx_ll_exti.h ****   *       Rising and falling edge triggers can be set for the same interrupt line.
 975:Drivers/STM32F3xx_HAL_Driver/Inc/stm32f3xx_ll_exti.h ****   *       In this case, both generate a trigger condition.
 976:Drivers/STM32F3xx_HAL_Driver/Inc/stm32f3xx_ll_exti.h ****   * @rmtoll FTSR        FTx           LL_EXTI_DisableFallingTrig_0_31
 977:Drivers/STM32F3xx_HAL_Driver/Inc/stm32f3xx_ll_exti.h ****   * @param  ExtiLine This parameter can be a combination of the following values:
 978:Drivers/STM32F3xx_HAL_Driver/Inc/stm32f3xx_ll_exti.h ****   *         @arg @ref LL_EXTI_LINE_0
 979:Drivers/STM32F3xx_HAL_Driver/Inc/stm32f3xx_ll_exti.h ****   *         @arg @ref LL_EXTI_LINE_1
 980:Drivers/STM32F3xx_HAL_Driver/Inc/stm32f3xx_ll_exti.h ****   *         @arg @ref LL_EXTI_LINE_2
 981:Drivers/STM32F3xx_HAL_Driver/Inc/stm32f3xx_ll_exti.h ****   *         @arg @ref LL_EXTI_LINE_3
 982:Drivers/STM32F3xx_HAL_Driver/Inc/stm32f3xx_ll_exti.h ****   *         @arg @ref LL_EXTI_LINE_4
 983:Drivers/STM32F3xx_HAL_Driver/Inc/stm32f3xx_ll_exti.h ****   *         @arg @ref LL_EXTI_LINE_5
 984:Drivers/STM32F3xx_HAL_Driver/Inc/stm32f3xx_ll_exti.h ****   *         @arg @ref LL_EXTI_LINE_6
 985:Drivers/STM32F3xx_HAL_Driver/Inc/stm32f3xx_ll_exti.h ****   *         @arg @ref LL_EXTI_LINE_7
 986:Drivers/STM32F3xx_HAL_Driver/Inc/stm32f3xx_ll_exti.h ****   *         @arg @ref LL_EXTI_LINE_8
 987:Drivers/STM32F3xx_HAL_Driver/Inc/stm32f3xx_ll_exti.h ****   *         @arg @ref LL_EXTI_LINE_9
 988:Drivers/STM32F3xx_HAL_Driver/Inc/stm32f3xx_ll_exti.h ****   *         @arg @ref LL_EXTI_LINE_10
 989:Drivers/STM32F3xx_HAL_Driver/Inc/stm32f3xx_ll_exti.h ****   *         @arg @ref LL_EXTI_LINE_11
 990:Drivers/STM32F3xx_HAL_Driver/Inc/stm32f3xx_ll_exti.h ****   *         @arg @ref LL_EXTI_LINE_12
 991:Drivers/STM32F3xx_HAL_Driver/Inc/stm32f3xx_ll_exti.h ****   *         @arg @ref LL_EXTI_LINE_13
 992:Drivers/STM32F3xx_HAL_Driver/Inc/stm32f3xx_ll_exti.h ****   *         @arg @ref LL_EXTI_LINE_14
 993:Drivers/STM32F3xx_HAL_Driver/Inc/stm32f3xx_ll_exti.h ****   *         @arg @ref LL_EXTI_LINE_15
 994:Drivers/STM32F3xx_HAL_Driver/Inc/stm32f3xx_ll_exti.h ****   *         @arg @ref LL_EXTI_LINE_16
 995:Drivers/STM32F3xx_HAL_Driver/Inc/stm32f3xx_ll_exti.h ****   *         @arg @ref LL_EXTI_LINE_18
 996:Drivers/STM32F3xx_HAL_Driver/Inc/stm32f3xx_ll_exti.h ****   *         @arg @ref LL_EXTI_LINE_19
 997:Drivers/STM32F3xx_HAL_Driver/Inc/stm32f3xx_ll_exti.h ****   *         @arg @ref LL_EXTI_LINE_20
 998:Drivers/STM32F3xx_HAL_Driver/Inc/stm32f3xx_ll_exti.h ****   *         @arg @ref LL_EXTI_LINE_21
 999:Drivers/STM32F3xx_HAL_Driver/Inc/stm32f3xx_ll_exti.h ****   *         @arg @ref LL_EXTI_LINE_22
1000:Drivers/STM32F3xx_HAL_Driver/Inc/stm32f3xx_ll_exti.h ****   *         @arg @ref LL_EXTI_LINE_29
1001:Drivers/STM32F3xx_HAL_Driver/Inc/stm32f3xx_ll_exti.h ****   *         @arg @ref LL_EXTI_LINE_30
1002:Drivers/STM32F3xx_HAL_Driver/Inc/stm32f3xx_ll_exti.h ****   *         @arg @ref LL_EXTI_LINE_31
1003:Drivers/STM32F3xx_HAL_Driver/Inc/stm32f3xx_ll_exti.h ****   * @note   Please check each device line mapping for EXTI Line availability
1004:Drivers/STM32F3xx_HAL_Driver/Inc/stm32f3xx_ll_exti.h ****   * @retval None
1005:Drivers/STM32F3xx_HAL_Driver/Inc/stm32f3xx_ll_exti.h ****   */
1006:Drivers/STM32F3xx_HAL_Driver/Inc/stm32f3xx_ll_exti.h **** __STATIC_INLINE void LL_EXTI_DisableFallingTrig_0_31(uint32_t ExtiLine)
 180              		.loc 2 1006 22 view .LVU48
 181              	.LBB63:
1007:Drivers/STM32F3xx_HAL_Driver/Inc/stm32f3xx_ll_exti.h **** {
1008:Drivers/STM32F3xx_HAL_Driver/Inc/stm32f3xx_ll_exti.h ****   CLEAR_BIT(EXTI->FTSR, ExtiLine);
 182              		.loc 2 1008 3 view .LVU49
 183 0046 534A     		ldr	r2, .L24
 184 0048 D168     		ldr	r1, [r2, #12]
 185 004a 21EA0401 		bic	r1, r1, r4
ARM GAS  /tmp/ccc7EsBH.s 			page 25


 186 004e D160     		str	r1, [r2, #12]
 187              	.LVL10:
 188              		.loc 2 1008 3 is_stmt 0 view .LVU50
 189              	.LBE63:
 190              	.LBE62:
 175:Drivers/STM32F3xx_HAL_Driver/Src/stm32f3xx_ll_exti.c ****             /* Then Enable Rising Trigger on provided Lines */
 176:Drivers/STM32F3xx_HAL_Driver/Src/stm32f3xx_ll_exti.c ****             LL_EXTI_EnableRisingTrig_0_31(EXTI_InitStruct->Line_0_31);
 191              		.loc 1 176 13 is_stmt 1 view .LVU51
 192 0050 1968     		ldr	r1, [r3]
 193              	.LVL11:
 194              	.LBB64:
 195              	.LBI64:
 740:Drivers/STM32F3xx_HAL_Driver/Inc/stm32f3xx_ll_exti.h **** {
 196              		.loc 2 740 22 view .LVU52
 197              	.LBB65:
 742:Drivers/STM32F3xx_HAL_Driver/Inc/stm32f3xx_ll_exti.h **** 
 198              		.loc 2 742 3 view .LVU53
 199 0052 9468     		ldr	r4, [r2, #8]
 200 0054 2143     		orrs	r1, r1, r4
 201              	.LVL12:
 742:Drivers/STM32F3xx_HAL_Driver/Inc/stm32f3xx_ll_exti.h **** 
 202              		.loc 2 742 3 is_stmt 0 view .LVU54
 203 0056 9160     		str	r1, [r2, #8]
 204              	.LVL13:
 742:Drivers/STM32F3xx_HAL_Driver/Inc/stm32f3xx_ll_exti.h **** 
 205              		.loc 2 742 3 view .LVU55
 206              	.LBE65:
 207              	.LBE64:
 177:Drivers/STM32F3xx_HAL_Driver/Src/stm32f3xx_ll_exti.c ****             break;
 208              		.loc 1 177 13 is_stmt 1 view .LVU56
 209              	.LBB67:
 210              	.LBB66:
 744:Drivers/STM32F3xx_HAL_Driver/Inc/stm32f3xx_ll_exti.h **** 
 211              		.loc 2 744 1 is_stmt 0 view .LVU57
 212 0058 2CE0     		b	.L6
 213              	.LVL14:
 214              	.L7:
 744:Drivers/STM32F3xx_HAL_Driver/Inc/stm32f3xx_ll_exti.h **** 
 215              		.loc 2 744 1 view .LVU58
 216              	.LBE66:
 217              	.LBE67:
 155:Drivers/STM32F3xx_HAL_Driver/Src/stm32f3xx_ll_exti.c ****           /* Then Enable Event on provided Lines */
 218              		.loc 1 155 11 is_stmt 1 view .LVU59
 219              	.LBB68:
 220              	.LBI68:
 379:Drivers/STM32F3xx_HAL_Driver/Inc/stm32f3xx_ll_exti.h **** {
 221              		.loc 2 379 22 view .LVU60
 222              	.LBB69:
 381:Drivers/STM32F3xx_HAL_Driver/Inc/stm32f3xx_ll_exti.h **** }
 223              		.loc 2 381 3 view .LVU61
 224 005a 4E49     		ldr	r1, .L24
 225 005c 0868     		ldr	r0, [r1]
 226 005e 20EA0202 		bic	r2, r0, r2
 227              	.LVL15:
 381:Drivers/STM32F3xx_HAL_Driver/Inc/stm32f3xx_ll_exti.h **** }
 228              		.loc 2 381 3 is_stmt 0 view .LVU62
 229 0062 0A60     		str	r2, [r1]
ARM GAS  /tmp/ccc7EsBH.s 			page 26


 230              	.LVL16:
 381:Drivers/STM32F3xx_HAL_Driver/Inc/stm32f3xx_ll_exti.h **** }
 231              		.loc 2 381 3 view .LVU63
 232              	.LBE69:
 233              	.LBE68:
 157:Drivers/STM32F3xx_HAL_Driver/Src/stm32f3xx_ll_exti.c ****           break;
 234              		.loc 1 157 11 is_stmt 1 view .LVU64
 235 0064 1A68     		ldr	r2, [r3]
 236              	.LVL17:
 237              	.LBB70:
 238              	.LBI70:
 530:Drivers/STM32F3xx_HAL_Driver/Inc/stm32f3xx_ll_exti.h **** {
 239              		.loc 2 530 22 view .LVU65
 240              	.LBB71:
 532:Drivers/STM32F3xx_HAL_Driver/Inc/stm32f3xx_ll_exti.h **** 
 241              		.loc 2 532 3 view .LVU66
 242 0066 4868     		ldr	r0, [r1, #4]
 243 0068 0243     		orrs	r2, r2, r0
 244              	.LVL18:
 532:Drivers/STM32F3xx_HAL_Driver/Inc/stm32f3xx_ll_exti.h **** 
 245              		.loc 2 532 3 is_stmt 0 view .LVU67
 246 006a 4A60     		str	r2, [r1, #4]
 247              	.LVL19:
 532:Drivers/STM32F3xx_HAL_Driver/Inc/stm32f3xx_ll_exti.h **** 
 248              		.loc 2 532 3 view .LVU68
 249              	.LBE71:
 250              	.LBE70:
 158:Drivers/STM32F3xx_HAL_Driver/Src/stm32f3xx_ll_exti.c ****         case LL_EXTI_MODE_IT_EVENT:
 251              		.loc 1 158 11 is_stmt 1 view .LVU69
 128:Drivers/STM32F3xx_HAL_Driver/Src/stm32f3xx_ll_exti.c ****   /* Check the parameters */
 252              		.loc 1 128 15 is_stmt 0 view .LVU70
 253 006c 0020     		movs	r0, #0
 254              	.LBB73:
 255              	.LBB72:
 534:Drivers/STM32F3xx_HAL_Driver/Inc/stm32f3xx_ll_exti.h **** 
 256              		.loc 2 534 1 view .LVU71
 257 006e E0E7     		b	.L9
 258              	.L8:
 534:Drivers/STM32F3xx_HAL_Driver/Inc/stm32f3xx_ll_exti.h **** 
 259              		.loc 2 534 1 view .LVU72
 260              	.LBE72:
 261              	.LBE73:
 161:Drivers/STM32F3xx_HAL_Driver/Src/stm32f3xx_ll_exti.c ****           LL_EXTI_EnableEvent_0_31(EXTI_InitStruct->Line_0_31);
 262              		.loc 1 161 11 is_stmt 1 view .LVU73
 263              	.LVL20:
 264              	.LBB74:
 265              	.LBI74:
 307:Drivers/STM32F3xx_HAL_Driver/Inc/stm32f3xx_ll_exti.h **** {
 266              		.loc 2 307 22 view .LVU74
 267              	.LBB75:
 309:Drivers/STM32F3xx_HAL_Driver/Inc/stm32f3xx_ll_exti.h **** }
 268              		.loc 2 309 3 view .LVU75
 269 0070 4849     		ldr	r1, .L24
 270 0072 0868     		ldr	r0, [r1]
 271 0074 0243     		orrs	r2, r2, r0
 272              	.LVL21:
 309:Drivers/STM32F3xx_HAL_Driver/Inc/stm32f3xx_ll_exti.h **** }
ARM GAS  /tmp/ccc7EsBH.s 			page 27


 273              		.loc 2 309 3 is_stmt 0 view .LVU76
 274 0076 0A60     		str	r2, [r1]
 275              	.LVL22:
 309:Drivers/STM32F3xx_HAL_Driver/Inc/stm32f3xx_ll_exti.h **** }
 276              		.loc 2 309 3 view .LVU77
 277              	.LBE75:
 278              	.LBE74:
 162:Drivers/STM32F3xx_HAL_Driver/Src/stm32f3xx_ll_exti.c ****           break;
 279              		.loc 1 162 11 is_stmt 1 view .LVU78
 280 0078 1A68     		ldr	r2, [r3]
 281              	.LVL23:
 282              	.LBB76:
 283              	.LBI76:
 530:Drivers/STM32F3xx_HAL_Driver/Inc/stm32f3xx_ll_exti.h **** {
 284              		.loc 2 530 22 view .LVU79
 285              	.LBB77:
 532:Drivers/STM32F3xx_HAL_Driver/Inc/stm32f3xx_ll_exti.h **** 
 286              		.loc 2 532 3 view .LVU80
 287 007a 4868     		ldr	r0, [r1, #4]
 288 007c 0243     		orrs	r2, r2, r0
 289              	.LVL24:
 532:Drivers/STM32F3xx_HAL_Driver/Inc/stm32f3xx_ll_exti.h **** 
 290              		.loc 2 532 3 is_stmt 0 view .LVU81
 291 007e 4A60     		str	r2, [r1, #4]
 292              	.LVL25:
 532:Drivers/STM32F3xx_HAL_Driver/Inc/stm32f3xx_ll_exti.h **** 
 293              		.loc 2 532 3 view .LVU82
 294              	.LBE77:
 295              	.LBE76:
 163:Drivers/STM32F3xx_HAL_Driver/Src/stm32f3xx_ll_exti.c ****         default:
 296              		.loc 1 163 11 is_stmt 1 view .LVU83
 128:Drivers/STM32F3xx_HAL_Driver/Src/stm32f3xx_ll_exti.c ****   /* Check the parameters */
 297              		.loc 1 128 15 is_stmt 0 view .LVU84
 298 0080 0020     		movs	r0, #0
 299              	.LBB79:
 300              	.LBB78:
 534:Drivers/STM32F3xx_HAL_Driver/Inc/stm32f3xx_ll_exti.h **** 
 301              		.loc 2 534 1 view .LVU85
 302 0082 D6E7     		b	.L9
 303              	.L19:
 534:Drivers/STM32F3xx_HAL_Driver/Inc/stm32f3xx_ll_exti.h **** 
 304              		.loc 2 534 1 view .LVU86
 305              	.LBE78:
 306              	.LBE79:
 145:Drivers/STM32F3xx_HAL_Driver/Src/stm32f3xx_ll_exti.c ****       {
 307              		.loc 1 145 7 view .LVU87
 308 0084 0120     		movs	r0, #1
 309 0086 D4E7     		b	.L9
 310              	.LVL26:
 311              	.L10:
 178:Drivers/STM32F3xx_HAL_Driver/Src/stm32f3xx_ll_exti.c ****           case LL_EXTI_TRIGGER_FALLING:
 179:Drivers/STM32F3xx_HAL_Driver/Src/stm32f3xx_ll_exti.c ****             /* First Disable Rising Trigger on provided Lines */
 180:Drivers/STM32F3xx_HAL_Driver/Src/stm32f3xx_ll_exti.c ****             LL_EXTI_DisableRisingTrig_0_31(EXTI_InitStruct->Line_0_31);
 312              		.loc 1 180 13 is_stmt 1 view .LVU88
 313 0088 1C68     		ldr	r4, [r3]
 314              	.LVL27:
 315              	.LBB80:
ARM GAS  /tmp/ccc7EsBH.s 			page 28


 316              	.LBI80:
 808:Drivers/STM32F3xx_HAL_Driver/Inc/stm32f3xx_ll_exti.h **** {
 317              		.loc 2 808 22 view .LVU89
 318              	.LBB81:
 810:Drivers/STM32F3xx_HAL_Driver/Inc/stm32f3xx_ll_exti.h **** 
 319              		.loc 2 810 3 view .LVU90
 320 008a 424A     		ldr	r2, .L24
 321 008c 9168     		ldr	r1, [r2, #8]
 322 008e 21EA0401 		bic	r1, r1, r4
 323 0092 9160     		str	r1, [r2, #8]
 324              	.LVL28:
 810:Drivers/STM32F3xx_HAL_Driver/Inc/stm32f3xx_ll_exti.h **** 
 325              		.loc 2 810 3 is_stmt 0 view .LVU91
 326              	.LBE81:
 327              	.LBE80:
 181:Drivers/STM32F3xx_HAL_Driver/Src/stm32f3xx_ll_exti.c ****             /* Then Enable Falling Trigger on provided Lines */
 182:Drivers/STM32F3xx_HAL_Driver/Src/stm32f3xx_ll_exti.c ****             LL_EXTI_EnableFallingTrig_0_31(EXTI_InitStruct->Line_0_31);
 328              		.loc 1 182 13 is_stmt 1 view .LVU92
 329 0094 1968     		ldr	r1, [r3]
 330              	.LVL29:
 331              	.LBB82:
 332              	.LBI82:
 939:Drivers/STM32F3xx_HAL_Driver/Inc/stm32f3xx_ll_exti.h **** {
 333              		.loc 2 939 22 view .LVU93
 334              	.LBB83:
 941:Drivers/STM32F3xx_HAL_Driver/Inc/stm32f3xx_ll_exti.h **** }
 335              		.loc 2 941 3 view .LVU94
 336 0096 D468     		ldr	r4, [r2, #12]
 337 0098 2143     		orrs	r1, r1, r4
 338              	.LVL30:
 941:Drivers/STM32F3xx_HAL_Driver/Inc/stm32f3xx_ll_exti.h **** }
 339              		.loc 2 941 3 is_stmt 0 view .LVU95
 340 009a D160     		str	r1, [r2, #12]
 341              	.LVL31:
 941:Drivers/STM32F3xx_HAL_Driver/Inc/stm32f3xx_ll_exti.h **** }
 342              		.loc 2 941 3 view .LVU96
 343              	.LBE83:
 344              	.LBE82:
 183:Drivers/STM32F3xx_HAL_Driver/Src/stm32f3xx_ll_exti.c ****             break;
 345              		.loc 1 183 13 is_stmt 1 view .LVU97
 346              	.LBB85:
 347              	.LBB84:
 942:Drivers/STM32F3xx_HAL_Driver/Inc/stm32f3xx_ll_exti.h **** 
 348              		.loc 2 942 1 is_stmt 0 view .LVU98
 349 009c 0AE0     		b	.L6
 350              	.L11:
 942:Drivers/STM32F3xx_HAL_Driver/Inc/stm32f3xx_ll_exti.h **** 
 351              		.loc 2 942 1 view .LVU99
 352              	.LBE84:
 353              	.LBE85:
 184:Drivers/STM32F3xx_HAL_Driver/Src/stm32f3xx_ll_exti.c ****           case LL_EXTI_TRIGGER_RISING_FALLING:
 185:Drivers/STM32F3xx_HAL_Driver/Src/stm32f3xx_ll_exti.c ****             LL_EXTI_EnableRisingTrig_0_31(EXTI_InitStruct->Line_0_31);
 354              		.loc 1 185 13 is_stmt 1 view .LVU100
 355 009e 1968     		ldr	r1, [r3]
 356              	.LVL32:
 357              	.LBB86:
 358              	.LBI86:
ARM GAS  /tmp/ccc7EsBH.s 			page 29


 740:Drivers/STM32F3xx_HAL_Driver/Inc/stm32f3xx_ll_exti.h **** {
 359              		.loc 2 740 22 view .LVU101
 360              	.LBB87:
 742:Drivers/STM32F3xx_HAL_Driver/Inc/stm32f3xx_ll_exti.h **** 
 361              		.loc 2 742 3 view .LVU102
 362 00a0 3C4A     		ldr	r2, .L24
 363 00a2 9468     		ldr	r4, [r2, #8]
 364 00a4 2143     		orrs	r1, r1, r4
 365              	.LVL33:
 742:Drivers/STM32F3xx_HAL_Driver/Inc/stm32f3xx_ll_exti.h **** 
 366              		.loc 2 742 3 is_stmt 0 view .LVU103
 367 00a6 9160     		str	r1, [r2, #8]
 368              	.LVL34:
 742:Drivers/STM32F3xx_HAL_Driver/Inc/stm32f3xx_ll_exti.h **** 
 369              		.loc 2 742 3 view .LVU104
 370              	.LBE87:
 371              	.LBE86:
 186:Drivers/STM32F3xx_HAL_Driver/Src/stm32f3xx_ll_exti.c ****             LL_EXTI_EnableFallingTrig_0_31(EXTI_InitStruct->Line_0_31);
 372              		.loc 1 186 13 is_stmt 1 view .LVU105
 373 00a8 1968     		ldr	r1, [r3]
 374              	.LVL35:
 375              	.LBB88:
 376              	.LBI88:
 939:Drivers/STM32F3xx_HAL_Driver/Inc/stm32f3xx_ll_exti.h **** {
 377              		.loc 2 939 22 view .LVU106
 378              	.LBB89:
 941:Drivers/STM32F3xx_HAL_Driver/Inc/stm32f3xx_ll_exti.h **** }
 379              		.loc 2 941 3 view .LVU107
 380 00aa D468     		ldr	r4, [r2, #12]
 381 00ac 2143     		orrs	r1, r1, r4
 382              	.LVL36:
 941:Drivers/STM32F3xx_HAL_Driver/Inc/stm32f3xx_ll_exti.h **** }
 383              		.loc 2 941 3 is_stmt 0 view .LVU108
 384 00ae D160     		str	r1, [r2, #12]
 385              	.LVL37:
 941:Drivers/STM32F3xx_HAL_Driver/Inc/stm32f3xx_ll_exti.h **** }
 386              		.loc 2 941 3 view .LVU109
 387              	.LBE89:
 388              	.LBE88:
 187:Drivers/STM32F3xx_HAL_Driver/Src/stm32f3xx_ll_exti.c ****             break;
 389              		.loc 1 187 13 is_stmt 1 view .LVU110
 390              	.LBB91:
 391              	.LBB90:
 942:Drivers/STM32F3xx_HAL_Driver/Inc/stm32f3xx_ll_exti.h **** 
 392              		.loc 2 942 1 is_stmt 0 view .LVU111
 393 00b0 00E0     		b	.L6
 394              	.LVL38:
 395              	.L18:
 942:Drivers/STM32F3xx_HAL_Driver/Inc/stm32f3xx_ll_exti.h **** 
 396              		.loc 2 942 1 view .LVU112
 397              	.LBE90:
 398              	.LBE91:
 128:Drivers/STM32F3xx_HAL_Driver/Src/stm32f3xx_ll_exti.c ****   /* Check the parameters */
 399              		.loc 1 128 15 view .LVU113
 400 00b2 0020     		movs	r0, #0
 401              	.LVL39:
 402              	.L6:
ARM GAS  /tmp/ccc7EsBH.s 			page 30


 188:Drivers/STM32F3xx_HAL_Driver/Src/stm32f3xx_ll_exti.c ****           default:
 189:Drivers/STM32F3xx_HAL_Driver/Src/stm32f3xx_ll_exti.c ****             status = ERROR;
 190:Drivers/STM32F3xx_HAL_Driver/Src/stm32f3xx_ll_exti.c ****             break;
 191:Drivers/STM32F3xx_HAL_Driver/Src/stm32f3xx_ll_exti.c ****         }
 192:Drivers/STM32F3xx_HAL_Driver/Src/stm32f3xx_ll_exti.c ****       }
 193:Drivers/STM32F3xx_HAL_Driver/Src/stm32f3xx_ll_exti.c ****     }
 194:Drivers/STM32F3xx_HAL_Driver/Src/stm32f3xx_ll_exti.c **** #if defined(EXTI_32_63_SUPPORT)
 195:Drivers/STM32F3xx_HAL_Driver/Src/stm32f3xx_ll_exti.c ****     /* Configure EXTI Lines in range from 32 to 63 */
 196:Drivers/STM32F3xx_HAL_Driver/Src/stm32f3xx_ll_exti.c ****     if (EXTI_InitStruct->Line_32_63 != LL_EXTI_LINE_NONE)
 403              		.loc 1 196 5 is_stmt 1 view .LVU114
 404              		.loc 1 196 24 is_stmt 0 view .LVU115
 405 00b4 5A68     		ldr	r2, [r3, #4]
 406              		.loc 1 196 8 view .LVU116
 407 00b6 002A     		cmp	r2, #0
 408 00b8 67D0     		beq	.L12
 197:Drivers/STM32F3xx_HAL_Driver/Src/stm32f3xx_ll_exti.c ****     {
 198:Drivers/STM32F3xx_HAL_Driver/Src/stm32f3xx_ll_exti.c ****       switch (EXTI_InitStruct->Mode)
 409              		.loc 1 198 7 is_stmt 1 view .LVU117
 410              		.loc 1 198 30 is_stmt 0 view .LVU118
 411 00ba 597A     		ldrb	r1, [r3, #9]	@ zero_extendqisi2
 412              		.loc 1 198 7 view .LVU119
 413 00bc 0129     		cmp	r1, #1
 414 00be 25D0     		beq	.L13
 415 00c0 0229     		cmp	r1, #2
 416 00c2 2DD0     		beq	.L14
 417 00c4 0029     		cmp	r1, #0
 418 00c6 34D1     		bne	.L21
 199:Drivers/STM32F3xx_HAL_Driver/Src/stm32f3xx_ll_exti.c ****       {
 200:Drivers/STM32F3xx_HAL_Driver/Src/stm32f3xx_ll_exti.c ****         case LL_EXTI_MODE_IT:
 201:Drivers/STM32F3xx_HAL_Driver/Src/stm32f3xx_ll_exti.c ****           /* First Disable Event on provided Lines */
 202:Drivers/STM32F3xx_HAL_Driver/Src/stm32f3xx_ll_exti.c ****           LL_EXTI_DisableEvent_32_63(EXTI_InitStruct->Line_32_63);
 419              		.loc 1 202 11 is_stmt 1 view .LVU120
 420              	.LVL40:
 421              	.LBB92:
 422              	.LBI92:
 619:Drivers/STM32F3xx_HAL_Driver/Inc/stm32f3xx_ll_exti.h **** {
 423              		.loc 2 619 22 view .LVU121
 424              	.LBB93:
 621:Drivers/STM32F3xx_HAL_Driver/Inc/stm32f3xx_ll_exti.h **** }
 425              		.loc 2 621 3 view .LVU122
 426 00c8 01F18041 		add	r1, r1, #1073741824
 427 00cc 01F58231 		add	r1, r1, #66560
 428 00d0 4C6A     		ldr	r4, [r1, #36]
 429 00d2 24EA0202 		bic	r2, r4, r2
 430              	.LVL41:
 621:Drivers/STM32F3xx_HAL_Driver/Inc/stm32f3xx_ll_exti.h **** }
 431              		.loc 2 621 3 is_stmt 0 view .LVU123
 432 00d6 4A62     		str	r2, [r1, #36]
 433              	.LVL42:
 621:Drivers/STM32F3xx_HAL_Driver/Inc/stm32f3xx_ll_exti.h **** }
 434              		.loc 2 621 3 view .LVU124
 435              	.LBE93:
 436              	.LBE92:
 203:Drivers/STM32F3xx_HAL_Driver/Src/stm32f3xx_ll_exti.c ****           /* Then Enable IT on provided Lines */
 204:Drivers/STM32F3xx_HAL_Driver/Src/stm32f3xx_ll_exti.c ****           LL_EXTI_EnableIT_32_63(EXTI_InitStruct->Line_32_63);
 437              		.loc 1 204 11 is_stmt 1 view .LVU125
 438 00d8 5A68     		ldr	r2, [r3, #4]
ARM GAS  /tmp/ccc7EsBH.s 			page 31


 439              	.LVL43:
 440              	.LBB94:
 441              	.LBI94:
 330:Drivers/STM32F3xx_HAL_Driver/Inc/stm32f3xx_ll_exti.h **** {
 442              		.loc 2 330 22 view .LVU126
 443              	.LBB95:
 332:Drivers/STM32F3xx_HAL_Driver/Inc/stm32f3xx_ll_exti.h **** }
 444              		.loc 2 332 3 view .LVU127
 445 00da 0C6A     		ldr	r4, [r1, #32]
 446 00dc 2243     		orrs	r2, r2, r4
 447              	.LVL44:
 332:Drivers/STM32F3xx_HAL_Driver/Inc/stm32f3xx_ll_exti.h **** }
 448              		.loc 2 332 3 is_stmt 0 view .LVU128
 449 00de 0A62     		str	r2, [r1, #32]
 450              	.LVL45:
 332:Drivers/STM32F3xx_HAL_Driver/Inc/stm32f3xx_ll_exti.h **** }
 451              		.loc 2 332 3 view .LVU129
 452              	.LBE95:
 453              	.LBE94:
 205:Drivers/STM32F3xx_HAL_Driver/Src/stm32f3xx_ll_exti.c ****           break;
 454              		.loc 1 205 11 is_stmt 1 view .LVU130
 455              	.L15:
 206:Drivers/STM32F3xx_HAL_Driver/Src/stm32f3xx_ll_exti.c ****         case LL_EXTI_MODE_EVENT:
 207:Drivers/STM32F3xx_HAL_Driver/Src/stm32f3xx_ll_exti.c ****           /* First Disable IT on provided Lines */
 208:Drivers/STM32F3xx_HAL_Driver/Src/stm32f3xx_ll_exti.c ****           LL_EXTI_DisableIT_32_63(EXTI_InitStruct->Line_32_63);
 209:Drivers/STM32F3xx_HAL_Driver/Src/stm32f3xx_ll_exti.c ****           /* Then Enable Event on provided Lines */
 210:Drivers/STM32F3xx_HAL_Driver/Src/stm32f3xx_ll_exti.c ****           LL_EXTI_EnableEvent_32_63(EXTI_InitStruct->Line_32_63);
 211:Drivers/STM32F3xx_HAL_Driver/Src/stm32f3xx_ll_exti.c ****           break;
 212:Drivers/STM32F3xx_HAL_Driver/Src/stm32f3xx_ll_exti.c ****         case LL_EXTI_MODE_IT_EVENT:
 213:Drivers/STM32F3xx_HAL_Driver/Src/stm32f3xx_ll_exti.c ****           /* Directly Enable IT & Event on provided Lines */
 214:Drivers/STM32F3xx_HAL_Driver/Src/stm32f3xx_ll_exti.c ****           LL_EXTI_EnableIT_32_63(EXTI_InitStruct->Line_32_63);
 215:Drivers/STM32F3xx_HAL_Driver/Src/stm32f3xx_ll_exti.c ****           LL_EXTI_EnableEvent_32_63(EXTI_InitStruct->Line_32_63);
 216:Drivers/STM32F3xx_HAL_Driver/Src/stm32f3xx_ll_exti.c ****           break;
 217:Drivers/STM32F3xx_HAL_Driver/Src/stm32f3xx_ll_exti.c ****         default:
 218:Drivers/STM32F3xx_HAL_Driver/Src/stm32f3xx_ll_exti.c ****           status = ERROR;
 219:Drivers/STM32F3xx_HAL_Driver/Src/stm32f3xx_ll_exti.c ****           break;
 220:Drivers/STM32F3xx_HAL_Driver/Src/stm32f3xx_ll_exti.c ****       }
 221:Drivers/STM32F3xx_HAL_Driver/Src/stm32f3xx_ll_exti.c ****       if (EXTI_InitStruct->Trigger != LL_EXTI_TRIGGER_NONE)
 456              		.loc 1 221 7 view .LVU131
 457              		.loc 1 221 26 is_stmt 0 view .LVU132
 458 00e0 9A7A     		ldrb	r2, [r3, #10]	@ zero_extendqisi2
 459              		.loc 1 221 10 view .LVU133
 460 00e2 002A     		cmp	r2, #0
 461 00e4 51D0     		beq	.L12
 222:Drivers/STM32F3xx_HAL_Driver/Src/stm32f3xx_ll_exti.c ****       {
 223:Drivers/STM32F3xx_HAL_Driver/Src/stm32f3xx_ll_exti.c ****         switch (EXTI_InitStruct->Trigger)
 462              		.loc 1 223 9 is_stmt 1 view .LVU134
 463 00e6 022A     		cmp	r2, #2
 464 00e8 25D0     		beq	.L16
 465 00ea 032A     		cmp	r2, #3
 466 00ec 2ED0     		beq	.L17
 467 00ee 012A     		cmp	r2, #1
 468 00f0 4ED1     		bne	.L22
 224:Drivers/STM32F3xx_HAL_Driver/Src/stm32f3xx_ll_exti.c ****         {
 225:Drivers/STM32F3xx_HAL_Driver/Src/stm32f3xx_ll_exti.c ****           case LL_EXTI_TRIGGER_RISING:
 226:Drivers/STM32F3xx_HAL_Driver/Src/stm32f3xx_ll_exti.c ****             /* First Disable Falling Trigger on provided Lines */
 227:Drivers/STM32F3xx_HAL_Driver/Src/stm32f3xx_ll_exti.c ****             LL_EXTI_DisableFallingTrig_32_63(EXTI_InitStruct->Line_32_63);
ARM GAS  /tmp/ccc7EsBH.s 			page 32


 469              		.loc 1 227 13 view .LVU135
 470 00f2 5C68     		ldr	r4, [r3, #4]
 471              	.LVL46:
 472              	.LBB96:
 473              	.LBI96:
1009:Drivers/STM32F3xx_HAL_Driver/Inc/stm32f3xx_ll_exti.h **** }
1010:Drivers/STM32F3xx_HAL_Driver/Inc/stm32f3xx_ll_exti.h **** 
1011:Drivers/STM32F3xx_HAL_Driver/Inc/stm32f3xx_ll_exti.h **** #if defined(EXTI_32_63_SUPPORT)
1012:Drivers/STM32F3xx_HAL_Driver/Inc/stm32f3xx_ll_exti.h **** /**
1013:Drivers/STM32F3xx_HAL_Driver/Inc/stm32f3xx_ll_exti.h ****   * @brief  Disable ExtiLine Falling Edge Trigger for Lines in range 32 to 63
1014:Drivers/STM32F3xx_HAL_Driver/Inc/stm32f3xx_ll_exti.h ****   * @note The configurable wakeup lines are edge-triggered. No glitch must be
1015:Drivers/STM32F3xx_HAL_Driver/Inc/stm32f3xx_ll_exti.h ****   *       generated on these lines. If a Falling edge on a configurable interrupt
1016:Drivers/STM32F3xx_HAL_Driver/Inc/stm32f3xx_ll_exti.h ****   *       line occurs during a write operation in the EXTI_FTSR register, the
1017:Drivers/STM32F3xx_HAL_Driver/Inc/stm32f3xx_ll_exti.h ****   *       pending bit is not set.
1018:Drivers/STM32F3xx_HAL_Driver/Inc/stm32f3xx_ll_exti.h ****   *       Rising and falling edge triggers can be set for the same interrupt line.
1019:Drivers/STM32F3xx_HAL_Driver/Inc/stm32f3xx_ll_exti.h ****   *       In this case, both generate a trigger condition.
1020:Drivers/STM32F3xx_HAL_Driver/Inc/stm32f3xx_ll_exti.h ****   * @rmtoll FTSR2        FTx           LL_EXTI_DisableFallingTrig_32_63
1021:Drivers/STM32F3xx_HAL_Driver/Inc/stm32f3xx_ll_exti.h ****   * @param  ExtiLine This parameter can be a combination of the following values:
1022:Drivers/STM32F3xx_HAL_Driver/Inc/stm32f3xx_ll_exti.h ****   *         @arg @ref LL_EXTI_LINE_35
1023:Drivers/STM32F3xx_HAL_Driver/Inc/stm32f3xx_ll_exti.h ****   *         @arg @ref LL_EXTI_LINE_36
1024:Drivers/STM32F3xx_HAL_Driver/Inc/stm32f3xx_ll_exti.h ****   *         @arg @ref LL_EXTI_LINE_37
1025:Drivers/STM32F3xx_HAL_Driver/Inc/stm32f3xx_ll_exti.h ****   *         @arg @ref LL_EXTI_LINE_38
1026:Drivers/STM32F3xx_HAL_Driver/Inc/stm32f3xx_ll_exti.h ****   * @retval None
1027:Drivers/STM32F3xx_HAL_Driver/Inc/stm32f3xx_ll_exti.h ****   */
1028:Drivers/STM32F3xx_HAL_Driver/Inc/stm32f3xx_ll_exti.h **** __STATIC_INLINE void LL_EXTI_DisableFallingTrig_32_63(uint32_t ExtiLine)
 474              		.loc 2 1028 22 view .LVU136
 475              	.LBB97:
1029:Drivers/STM32F3xx_HAL_Driver/Inc/stm32f3xx_ll_exti.h **** {
1030:Drivers/STM32F3xx_HAL_Driver/Inc/stm32f3xx_ll_exti.h ****   CLEAR_BIT(EXTI->FTSR2, ExtiLine);
 476              		.loc 2 1030 3 view .LVU137
 477 00f4 274A     		ldr	r2, .L24
 478 00f6 D16A     		ldr	r1, [r2, #44]
 479 00f8 21EA0401 		bic	r1, r1, r4
 480 00fc D162     		str	r1, [r2, #44]
 481              	.LVL47:
 482              		.loc 2 1030 3 is_stmt 0 view .LVU138
 483              	.LBE97:
 484              	.LBE96:
 228:Drivers/STM32F3xx_HAL_Driver/Src/stm32f3xx_ll_exti.c ****             /* Then Enable IT on provided Lines */
 229:Drivers/STM32F3xx_HAL_Driver/Src/stm32f3xx_ll_exti.c ****             LL_EXTI_EnableRisingTrig_32_63(EXTI_InitStruct->Line_32_63);
 485              		.loc 1 229 13 is_stmt 1 view .LVU139
 486 00fe 5B68     		ldr	r3, [r3, #4]
 487              	.LVL48:
 488              	.LBB98:
 489              	.LBI98:
 763:Drivers/STM32F3xx_HAL_Driver/Inc/stm32f3xx_ll_exti.h **** {
 490              		.loc 2 763 22 view .LVU140
 491              	.LBB99:
 765:Drivers/STM32F3xx_HAL_Driver/Inc/stm32f3xx_ll_exti.h **** }
 492              		.loc 2 765 3 view .LVU141
 493 0100 916A     		ldr	r1, [r2, #40]
 494 0102 0B43     		orrs	r3, r3, r1
 495              	.LVL49:
 765:Drivers/STM32F3xx_HAL_Driver/Inc/stm32f3xx_ll_exti.h **** }
 496              		.loc 2 765 3 is_stmt 0 view .LVU142
 497 0104 9362     		str	r3, [r2, #40]
 498              	.LVL50:
ARM GAS  /tmp/ccc7EsBH.s 			page 33


 765:Drivers/STM32F3xx_HAL_Driver/Inc/stm32f3xx_ll_exti.h **** }
 499              		.loc 2 765 3 view .LVU143
 500              	.LBE99:
 501              	.LBE98:
 230:Drivers/STM32F3xx_HAL_Driver/Src/stm32f3xx_ll_exti.c ****             break;
 502              		.loc 1 230 13 is_stmt 1 view .LVU144
 503              	.LBB101:
 504              	.LBB100:
 766:Drivers/STM32F3xx_HAL_Driver/Inc/stm32f3xx_ll_exti.h **** #endif
 505              		.loc 2 766 1 is_stmt 0 view .LVU145
 506 0106 40E0     		b	.L12
 507              	.LVL51:
 508              	.L20:
 766:Drivers/STM32F3xx_HAL_Driver/Inc/stm32f3xx_ll_exti.h **** #endif
 509              		.loc 2 766 1 view .LVU146
 510              	.LBE100:
 511              	.LBE101:
 170:Drivers/STM32F3xx_HAL_Driver/Src/stm32f3xx_ll_exti.c ****         {
 512              		.loc 1 170 9 view .LVU147
 513 0108 0120     		movs	r0, #1
 514              	.LVL52:
 170:Drivers/STM32F3xx_HAL_Driver/Src/stm32f3xx_ll_exti.c ****         {
 515              		.loc 1 170 9 view .LVU148
 516 010a D3E7     		b	.L6
 517              	.LVL53:
 518              	.L13:
 208:Drivers/STM32F3xx_HAL_Driver/Src/stm32f3xx_ll_exti.c ****           /* Then Enable Event on provided Lines */
 519              		.loc 1 208 11 is_stmt 1 view .LVU149
 520              	.LBB102:
 521              	.LBI102:
 403:Drivers/STM32F3xx_HAL_Driver/Inc/stm32f3xx_ll_exti.h **** {
 522              		.loc 2 403 22 view .LVU150
 523              	.LBB103:
 405:Drivers/STM32F3xx_HAL_Driver/Inc/stm32f3xx_ll_exti.h **** }
 524              		.loc 2 405 3 view .LVU151
 525 010c 2149     		ldr	r1, .L24
 526 010e 0C6A     		ldr	r4, [r1, #32]
 527 0110 24EA0202 		bic	r2, r4, r2
 528              	.LVL54:
 405:Drivers/STM32F3xx_HAL_Driver/Inc/stm32f3xx_ll_exti.h **** }
 529              		.loc 2 405 3 is_stmt 0 view .LVU152
 530 0114 0A62     		str	r2, [r1, #32]
 531              	.LVL55:
 405:Drivers/STM32F3xx_HAL_Driver/Inc/stm32f3xx_ll_exti.h **** }
 532              		.loc 2 405 3 view .LVU153
 533              	.LBE103:
 534              	.LBE102:
 210:Drivers/STM32F3xx_HAL_Driver/Src/stm32f3xx_ll_exti.c ****           break;
 535              		.loc 1 210 11 is_stmt 1 view .LVU154
 536 0116 5A68     		ldr	r2, [r3, #4]
 537              	.LVL56:
 538              	.LBB104:
 539              	.LBI104:
 552:Drivers/STM32F3xx_HAL_Driver/Inc/stm32f3xx_ll_exti.h **** {
 540              		.loc 2 552 22 view .LVU155
 541              	.LBB105:
 554:Drivers/STM32F3xx_HAL_Driver/Inc/stm32f3xx_ll_exti.h **** }
ARM GAS  /tmp/ccc7EsBH.s 			page 34


 542              		.loc 2 554 3 view .LVU156
 543 0118 4C6A     		ldr	r4, [r1, #36]
 544 011a 2243     		orrs	r2, r2, r4
 545              	.LVL57:
 554:Drivers/STM32F3xx_HAL_Driver/Inc/stm32f3xx_ll_exti.h **** }
 546              		.loc 2 554 3 is_stmt 0 view .LVU157
 547 011c 4A62     		str	r2, [r1, #36]
 548              	.LVL58:
 554:Drivers/STM32F3xx_HAL_Driver/Inc/stm32f3xx_ll_exti.h **** }
 549              		.loc 2 554 3 view .LVU158
 550              	.LBE105:
 551              	.LBE104:
 211:Drivers/STM32F3xx_HAL_Driver/Src/stm32f3xx_ll_exti.c ****         case LL_EXTI_MODE_IT_EVENT:
 552              		.loc 1 211 11 is_stmt 1 view .LVU159
 553              	.LBB107:
 554              	.LBB106:
 555:Drivers/STM32F3xx_HAL_Driver/Inc/stm32f3xx_ll_exti.h **** #endif
 555              		.loc 2 555 1 is_stmt 0 view .LVU160
 556 011e DFE7     		b	.L15
 557              	.L14:
 555:Drivers/STM32F3xx_HAL_Driver/Inc/stm32f3xx_ll_exti.h **** #endif
 558              		.loc 2 555 1 view .LVU161
 559              	.LBE106:
 560              	.LBE107:
 214:Drivers/STM32F3xx_HAL_Driver/Src/stm32f3xx_ll_exti.c ****           LL_EXTI_EnableEvent_32_63(EXTI_InitStruct->Line_32_63);
 561              		.loc 1 214 11 is_stmt 1 view .LVU162
 562              	.LVL59:
 563              	.LBB108:
 564              	.LBI108:
 330:Drivers/STM32F3xx_HAL_Driver/Inc/stm32f3xx_ll_exti.h **** {
 565              		.loc 2 330 22 view .LVU163
 566              	.LBB109:
 332:Drivers/STM32F3xx_HAL_Driver/Inc/stm32f3xx_ll_exti.h **** }
 567              		.loc 2 332 3 view .LVU164
 568 0120 1C49     		ldr	r1, .L24
 569 0122 0C6A     		ldr	r4, [r1, #32]
 570 0124 2243     		orrs	r2, r2, r4
 571              	.LVL60:
 332:Drivers/STM32F3xx_HAL_Driver/Inc/stm32f3xx_ll_exti.h **** }
 572              		.loc 2 332 3 is_stmt 0 view .LVU165
 573 0126 0A62     		str	r2, [r1, #32]
 574              	.LVL61:
 332:Drivers/STM32F3xx_HAL_Driver/Inc/stm32f3xx_ll_exti.h **** }
 575              		.loc 2 332 3 view .LVU166
 576              	.LBE109:
 577              	.LBE108:
 215:Drivers/STM32F3xx_HAL_Driver/Src/stm32f3xx_ll_exti.c ****           break;
 578              		.loc 1 215 11 is_stmt 1 view .LVU167
 579 0128 5A68     		ldr	r2, [r3, #4]
 580              	.LVL62:
 581              	.LBB110:
 582              	.LBI110:
 552:Drivers/STM32F3xx_HAL_Driver/Inc/stm32f3xx_ll_exti.h **** {
 583              		.loc 2 552 22 view .LVU168
 584              	.LBB111:
 554:Drivers/STM32F3xx_HAL_Driver/Inc/stm32f3xx_ll_exti.h **** }
 585              		.loc 2 554 3 view .LVU169
ARM GAS  /tmp/ccc7EsBH.s 			page 35


 586 012a 4C6A     		ldr	r4, [r1, #36]
 587 012c 2243     		orrs	r2, r2, r4
 588              	.LVL63:
 554:Drivers/STM32F3xx_HAL_Driver/Inc/stm32f3xx_ll_exti.h **** }
 589              		.loc 2 554 3 is_stmt 0 view .LVU170
 590 012e 4A62     		str	r2, [r1, #36]
 591              	.LVL64:
 554:Drivers/STM32F3xx_HAL_Driver/Inc/stm32f3xx_ll_exti.h **** }
 592              		.loc 2 554 3 view .LVU171
 593              	.LBE111:
 594              	.LBE110:
 216:Drivers/STM32F3xx_HAL_Driver/Src/stm32f3xx_ll_exti.c ****         default:
 595              		.loc 1 216 11 is_stmt 1 view .LVU172
 596              	.LBB113:
 597              	.LBB112:
 555:Drivers/STM32F3xx_HAL_Driver/Inc/stm32f3xx_ll_exti.h **** #endif
 598              		.loc 2 555 1 is_stmt 0 view .LVU173
 599 0130 D6E7     		b	.L15
 600              	.L21:
 555:Drivers/STM32F3xx_HAL_Driver/Inc/stm32f3xx_ll_exti.h **** #endif
 601              		.loc 2 555 1 view .LVU174
 602              	.LBE112:
 603              	.LBE113:
 198:Drivers/STM32F3xx_HAL_Driver/Src/stm32f3xx_ll_exti.c ****       {
 604              		.loc 1 198 7 view .LVU175
 605 0132 0120     		movs	r0, #1
 606              	.LVL65:
 198:Drivers/STM32F3xx_HAL_Driver/Src/stm32f3xx_ll_exti.c ****       {
 607              		.loc 1 198 7 view .LVU176
 608 0134 D4E7     		b	.L15
 609              	.LVL66:
 610              	.L16:
 231:Drivers/STM32F3xx_HAL_Driver/Src/stm32f3xx_ll_exti.c ****           case LL_EXTI_TRIGGER_FALLING:
 232:Drivers/STM32F3xx_HAL_Driver/Src/stm32f3xx_ll_exti.c ****             /* First Disable Rising Trigger on provided Lines */
 233:Drivers/STM32F3xx_HAL_Driver/Src/stm32f3xx_ll_exti.c ****             LL_EXTI_DisableRisingTrig_32_63(EXTI_InitStruct->Line_32_63);
 611              		.loc 1 233 13 is_stmt 1 view .LVU177
 612 0136 5C68     		ldr	r4, [r3, #4]
 613              	.LVL67:
 614              	.LBB114:
 615              	.LBI114:
 832:Drivers/STM32F3xx_HAL_Driver/Inc/stm32f3xx_ll_exti.h **** {
 616              		.loc 2 832 22 view .LVU178
 617              	.LBB115:
 834:Drivers/STM32F3xx_HAL_Driver/Inc/stm32f3xx_ll_exti.h **** }
 618              		.loc 2 834 3 view .LVU179
 619 0138 164A     		ldr	r2, .L24
 620 013a 916A     		ldr	r1, [r2, #40]
 621 013c 21EA0401 		bic	r1, r1, r4
 622 0140 9162     		str	r1, [r2, #40]
 623              	.LVL68:
 834:Drivers/STM32F3xx_HAL_Driver/Inc/stm32f3xx_ll_exti.h **** }
 624              		.loc 2 834 3 is_stmt 0 view .LVU180
 625              	.LBE115:
 626              	.LBE114:
 234:Drivers/STM32F3xx_HAL_Driver/Src/stm32f3xx_ll_exti.c ****             /* Then Enable Falling Trigger on provided Lines */
 235:Drivers/STM32F3xx_HAL_Driver/Src/stm32f3xx_ll_exti.c ****             LL_EXTI_EnableFallingTrig_32_63(EXTI_InitStruct->Line_32_63);
 627              		.loc 1 235 13 is_stmt 1 view .LVU181
ARM GAS  /tmp/ccc7EsBH.s 			page 36


 628 0142 5B68     		ldr	r3, [r3, #4]
 629              	.LVL69:
 630              	.LBB116:
 631              	.LBI116:
 962:Drivers/STM32F3xx_HAL_Driver/Inc/stm32f3xx_ll_exti.h **** {
 632              		.loc 2 962 22 view .LVU182
 633              	.LBB117:
 964:Drivers/STM32F3xx_HAL_Driver/Inc/stm32f3xx_ll_exti.h **** }
 634              		.loc 2 964 3 view .LVU183
 635 0144 D16A     		ldr	r1, [r2, #44]
 636 0146 0B43     		orrs	r3, r3, r1
 637              	.LVL70:
 964:Drivers/STM32F3xx_HAL_Driver/Inc/stm32f3xx_ll_exti.h **** }
 638              		.loc 2 964 3 is_stmt 0 view .LVU184
 639 0148 D362     		str	r3, [r2, #44]
 640              	.LVL71:
 964:Drivers/STM32F3xx_HAL_Driver/Inc/stm32f3xx_ll_exti.h **** }
 641              		.loc 2 964 3 view .LVU185
 642              	.LBE117:
 643              	.LBE116:
 236:Drivers/STM32F3xx_HAL_Driver/Src/stm32f3xx_ll_exti.c ****             break;
 644              		.loc 1 236 13 is_stmt 1 view .LVU186
 645              	.LBB119:
 646              	.LBB118:
 965:Drivers/STM32F3xx_HAL_Driver/Inc/stm32f3xx_ll_exti.h **** #endif
 647              		.loc 2 965 1 is_stmt 0 view .LVU187
 648 014a 1EE0     		b	.L12
 649              	.LVL72:
 650              	.L17:
 965:Drivers/STM32F3xx_HAL_Driver/Inc/stm32f3xx_ll_exti.h **** #endif
 651              		.loc 2 965 1 view .LVU188
 652              	.LBE118:
 653              	.LBE119:
 237:Drivers/STM32F3xx_HAL_Driver/Src/stm32f3xx_ll_exti.c ****           case LL_EXTI_TRIGGER_RISING_FALLING:
 238:Drivers/STM32F3xx_HAL_Driver/Src/stm32f3xx_ll_exti.c ****             LL_EXTI_EnableRisingTrig_32_63(EXTI_InitStruct->Line_32_63);
 654              		.loc 1 238 13 is_stmt 1 view .LVU189
 655 014c 5968     		ldr	r1, [r3, #4]
 656              	.LVL73:
 657              	.LBB120:
 658              	.LBI120:
 763:Drivers/STM32F3xx_HAL_Driver/Inc/stm32f3xx_ll_exti.h **** {
 659              		.loc 2 763 22 view .LVU190
 660              	.LBB121:
 765:Drivers/STM32F3xx_HAL_Driver/Inc/stm32f3xx_ll_exti.h **** }
 661              		.loc 2 765 3 view .LVU191
 662 014e 114A     		ldr	r2, .L24
 663 0150 946A     		ldr	r4, [r2, #40]
 664 0152 2143     		orrs	r1, r1, r4
 665              	.LVL74:
 765:Drivers/STM32F3xx_HAL_Driver/Inc/stm32f3xx_ll_exti.h **** }
 666              		.loc 2 765 3 is_stmt 0 view .LVU192
 667 0154 9162     		str	r1, [r2, #40]
 668              	.LVL75:
 765:Drivers/STM32F3xx_HAL_Driver/Inc/stm32f3xx_ll_exti.h **** }
 669              		.loc 2 765 3 view .LVU193
 670              	.LBE121:
 671              	.LBE120:
ARM GAS  /tmp/ccc7EsBH.s 			page 37


 239:Drivers/STM32F3xx_HAL_Driver/Src/stm32f3xx_ll_exti.c ****             LL_EXTI_EnableFallingTrig_32_63(EXTI_InitStruct->Line_32_63);
 672              		.loc 1 239 13 is_stmt 1 view .LVU194
 673 0156 5B68     		ldr	r3, [r3, #4]
 674              	.LVL76:
 675              	.LBB122:
 676              	.LBI122:
 962:Drivers/STM32F3xx_HAL_Driver/Inc/stm32f3xx_ll_exti.h **** {
 677              		.loc 2 962 22 view .LVU195
 678              	.LBB123:
 964:Drivers/STM32F3xx_HAL_Driver/Inc/stm32f3xx_ll_exti.h **** }
 679              		.loc 2 964 3 view .LVU196
 680 0158 D16A     		ldr	r1, [r2, #44]
 681 015a 0B43     		orrs	r3, r3, r1
 682              	.LVL77:
 964:Drivers/STM32F3xx_HAL_Driver/Inc/stm32f3xx_ll_exti.h **** }
 683              		.loc 2 964 3 is_stmt 0 view .LVU197
 684 015c D362     		str	r3, [r2, #44]
 685              	.LVL78:
 964:Drivers/STM32F3xx_HAL_Driver/Inc/stm32f3xx_ll_exti.h **** }
 686              		.loc 2 964 3 view .LVU198
 687              	.LBE123:
 688              	.LBE122:
 240:Drivers/STM32F3xx_HAL_Driver/Src/stm32f3xx_ll_exti.c ****             break;
 689              		.loc 1 240 13 is_stmt 1 view .LVU199
 690              	.LBB125:
 691              	.LBB124:
 965:Drivers/STM32F3xx_HAL_Driver/Inc/stm32f3xx_ll_exti.h **** #endif
 692              		.loc 2 965 1 is_stmt 0 view .LVU200
 693 015e 14E0     		b	.L12
 694              	.LVL79:
 695              	.L5:
 965:Drivers/STM32F3xx_HAL_Driver/Inc/stm32f3xx_ll_exti.h **** #endif
 696              		.loc 2 965 1 view .LVU201
 697              	.LBE124:
 698              	.LBE125:
 241:Drivers/STM32F3xx_HAL_Driver/Src/stm32f3xx_ll_exti.c ****           default:
 242:Drivers/STM32F3xx_HAL_Driver/Src/stm32f3xx_ll_exti.c ****             status = ERROR;
 243:Drivers/STM32F3xx_HAL_Driver/Src/stm32f3xx_ll_exti.c ****             break;
 244:Drivers/STM32F3xx_HAL_Driver/Src/stm32f3xx_ll_exti.c ****         }
 245:Drivers/STM32F3xx_HAL_Driver/Src/stm32f3xx_ll_exti.c ****       }
 246:Drivers/STM32F3xx_HAL_Driver/Src/stm32f3xx_ll_exti.c ****     }
 247:Drivers/STM32F3xx_HAL_Driver/Src/stm32f3xx_ll_exti.c **** #endif
 248:Drivers/STM32F3xx_HAL_Driver/Src/stm32f3xx_ll_exti.c ****   }
 249:Drivers/STM32F3xx_HAL_Driver/Src/stm32f3xx_ll_exti.c ****   /* DISABLE LineCommand */
 250:Drivers/STM32F3xx_HAL_Driver/Src/stm32f3xx_ll_exti.c ****   else
 251:Drivers/STM32F3xx_HAL_Driver/Src/stm32f3xx_ll_exti.c ****   {
 252:Drivers/STM32F3xx_HAL_Driver/Src/stm32f3xx_ll_exti.c ****     /* De-configure EXTI Lines in range from 0 to 31 */
 253:Drivers/STM32F3xx_HAL_Driver/Src/stm32f3xx_ll_exti.c ****     LL_EXTI_DisableIT_0_31(EXTI_InitStruct->Line_0_31);
 699              		.loc 1 253 5 is_stmt 1 view .LVU202
 700              	.LBB126:
 701              	.LBI126:
 379:Drivers/STM32F3xx_HAL_Driver/Inc/stm32f3xx_ll_exti.h **** {
 702              		.loc 2 379 22 view .LVU203
 703              	.LBB127:
 381:Drivers/STM32F3xx_HAL_Driver/Inc/stm32f3xx_ll_exti.h **** }
 704              		.loc 2 381 3 view .LVU204
 705 0160 0C4A     		ldr	r2, .L24
ARM GAS  /tmp/ccc7EsBH.s 			page 38


 706 0162 1168     		ldr	r1, [r2]
 707 0164 1C68     		ldr	r4, [r3]
 708 0166 21EA0401 		bic	r1, r1, r4
 709 016a 1160     		str	r1, [r2]
 710              	.LVL80:
 381:Drivers/STM32F3xx_HAL_Driver/Inc/stm32f3xx_ll_exti.h **** }
 711              		.loc 2 381 3 is_stmt 0 view .LVU205
 712              	.LBE127:
 713              	.LBE126:
 254:Drivers/STM32F3xx_HAL_Driver/Src/stm32f3xx_ll_exti.c ****     LL_EXTI_DisableEvent_0_31(EXTI_InitStruct->Line_0_31);
 714              		.loc 1 254 5 is_stmt 1 view .LVU206
 715              	.LBB128:
 716              	.LBI128:
 598:Drivers/STM32F3xx_HAL_Driver/Inc/stm32f3xx_ll_exti.h **** {
 717              		.loc 2 598 22 view .LVU207
 718              	.LBB129:
 600:Drivers/STM32F3xx_HAL_Driver/Inc/stm32f3xx_ll_exti.h **** }
 719              		.loc 2 600 3 view .LVU208
 720 016c 5168     		ldr	r1, [r2, #4]
 721 016e 1C68     		ldr	r4, [r3]
 722 0170 21EA0401 		bic	r1, r1, r4
 723 0174 5160     		str	r1, [r2, #4]
 724              	.LVL81:
 600:Drivers/STM32F3xx_HAL_Driver/Inc/stm32f3xx_ll_exti.h **** }
 725              		.loc 2 600 3 is_stmt 0 view .LVU209
 726              	.LBE129:
 727              	.LBE128:
 255:Drivers/STM32F3xx_HAL_Driver/Src/stm32f3xx_ll_exti.c **** #if defined(EXTI_32_63_SUPPORT)
 256:Drivers/STM32F3xx_HAL_Driver/Src/stm32f3xx_ll_exti.c ****     /* De-configure EXTI Lines in range from 32 to 63 */
 257:Drivers/STM32F3xx_HAL_Driver/Src/stm32f3xx_ll_exti.c ****     LL_EXTI_DisableIT_32_63(EXTI_InitStruct->Line_32_63);
 728              		.loc 1 257 5 is_stmt 1 view .LVU210
 729              	.LBB130:
 730              	.LBI130:
 403:Drivers/STM32F3xx_HAL_Driver/Inc/stm32f3xx_ll_exti.h **** {
 731              		.loc 2 403 22 view .LVU211
 732              	.LBB131:
 405:Drivers/STM32F3xx_HAL_Driver/Inc/stm32f3xx_ll_exti.h **** }
 733              		.loc 2 405 3 view .LVU212
 734 0176 116A     		ldr	r1, [r2, #32]
 735 0178 5C68     		ldr	r4, [r3, #4]
 736 017a 21EA0401 		bic	r1, r1, r4
 737 017e 1162     		str	r1, [r2, #32]
 738              	.LVL82:
 405:Drivers/STM32F3xx_HAL_Driver/Inc/stm32f3xx_ll_exti.h **** }
 739              		.loc 2 405 3 is_stmt 0 view .LVU213
 740              	.LBE131:
 741              	.LBE130:
 258:Drivers/STM32F3xx_HAL_Driver/Src/stm32f3xx_ll_exti.c ****     LL_EXTI_DisableEvent_32_63(EXTI_InitStruct->Line_32_63);
 742              		.loc 1 258 5 is_stmt 1 view .LVU214
 743 0180 5968     		ldr	r1, [r3, #4]
 744              	.LVL83:
 745              	.LBB132:
 746              	.LBI132:
 619:Drivers/STM32F3xx_HAL_Driver/Inc/stm32f3xx_ll_exti.h **** {
 747              		.loc 2 619 22 view .LVU215
 748              	.LBB133:
 621:Drivers/STM32F3xx_HAL_Driver/Inc/stm32f3xx_ll_exti.h **** }
ARM GAS  /tmp/ccc7EsBH.s 			page 39


 749              		.loc 2 621 3 view .LVU216
 750 0182 536A     		ldr	r3, [r2, #36]
 751              	.LVL84:
 621:Drivers/STM32F3xx_HAL_Driver/Inc/stm32f3xx_ll_exti.h **** }
 752              		.loc 2 621 3 is_stmt 0 view .LVU217
 753 0184 23EA0103 		bic	r3, r3, r1
 754 0188 5362     		str	r3, [r2, #36]
 755              	.LVL85:
 756              	.L12:
 621:Drivers/STM32F3xx_HAL_Driver/Inc/stm32f3xx_ll_exti.h **** }
 757              		.loc 2 621 3 view .LVU218
 758              	.LBE133:
 759              	.LBE132:
 259:Drivers/STM32F3xx_HAL_Driver/Src/stm32f3xx_ll_exti.c **** #endif
 260:Drivers/STM32F3xx_HAL_Driver/Src/stm32f3xx_ll_exti.c ****   }
 261:Drivers/STM32F3xx_HAL_Driver/Src/stm32f3xx_ll_exti.c ****   return status;
 760              		.loc 1 261 3 is_stmt 1 view .LVU219
 262:Drivers/STM32F3xx_HAL_Driver/Src/stm32f3xx_ll_exti.c **** }
 761              		.loc 1 262 1 is_stmt 0 view .LVU220
 762 018a 5DF8044B 		ldr	r4, [sp], #4
 763              		.cfi_remember_state
 764              		.cfi_restore 4
 765              		.cfi_def_cfa_offset 0
 766 018e 7047     		bx	lr
 767              	.LVL86:
 768              	.L22:
 769              		.cfi_restore_state
 223:Drivers/STM32F3xx_HAL_Driver/Src/stm32f3xx_ll_exti.c ****         {
 770              		.loc 1 223 9 view .LVU221
 771 0190 0120     		movs	r0, #1
 772              	.LVL87:
 223:Drivers/STM32F3xx_HAL_Driver/Src/stm32f3xx_ll_exti.c ****         {
 773              		.loc 1 223 9 view .LVU222
 774 0192 FAE7     		b	.L12
 775              	.L25:
 776              		.align	2
 777              	.L24:
 778 0194 00040140 		.word	1073808384
 779              		.cfi_endproc
 780              	.LFE156:
 782              		.section	.text.LL_EXTI_StructInit,"ax",%progbits
 783              		.align	1
 784              		.global	LL_EXTI_StructInit
 785              		.syntax unified
 786              		.thumb
 787              		.thumb_func
 789              	LL_EXTI_StructInit:
 790              	.LVL88:
 791              	.LFB157:
 263:Drivers/STM32F3xx_HAL_Driver/Src/stm32f3xx_ll_exti.c **** 
 264:Drivers/STM32F3xx_HAL_Driver/Src/stm32f3xx_ll_exti.c **** /**
 265:Drivers/STM32F3xx_HAL_Driver/Src/stm32f3xx_ll_exti.c ****   * @brief  Set each @ref LL_EXTI_InitTypeDef field to default value.
 266:Drivers/STM32F3xx_HAL_Driver/Src/stm32f3xx_ll_exti.c ****   * @param  EXTI_InitStruct Pointer to a @ref LL_EXTI_InitTypeDef structure.
 267:Drivers/STM32F3xx_HAL_Driver/Src/stm32f3xx_ll_exti.c ****   * @retval None
 268:Drivers/STM32F3xx_HAL_Driver/Src/stm32f3xx_ll_exti.c ****   */
 269:Drivers/STM32F3xx_HAL_Driver/Src/stm32f3xx_ll_exti.c **** void LL_EXTI_StructInit(LL_EXTI_InitTypeDef *EXTI_InitStruct)
 270:Drivers/STM32F3xx_HAL_Driver/Src/stm32f3xx_ll_exti.c **** {
ARM GAS  /tmp/ccc7EsBH.s 			page 40


 792              		.loc 1 270 1 is_stmt 1 view -0
 793              		.cfi_startproc
 794              		@ args = 0, pretend = 0, frame = 0
 795              		@ frame_needed = 0, uses_anonymous_args = 0
 796              		@ link register save eliminated.
 271:Drivers/STM32F3xx_HAL_Driver/Src/stm32f3xx_ll_exti.c ****   EXTI_InitStruct->Line_0_31      = LL_EXTI_LINE_NONE;
 797              		.loc 1 271 3 view .LVU224
 798              		.loc 1 271 35 is_stmt 0 view .LVU225
 799 0000 0023     		movs	r3, #0
 800 0002 0360     		str	r3, [r0]
 272:Drivers/STM32F3xx_HAL_Driver/Src/stm32f3xx_ll_exti.c **** #if defined(EXTI_32_63_SUPPORT)
 273:Drivers/STM32F3xx_HAL_Driver/Src/stm32f3xx_ll_exti.c ****   EXTI_InitStruct->Line_32_63     = LL_EXTI_LINE_NONE;
 801              		.loc 1 273 3 is_stmt 1 view .LVU226
 802              		.loc 1 273 35 is_stmt 0 view .LVU227
 803 0004 4360     		str	r3, [r0, #4]
 274:Drivers/STM32F3xx_HAL_Driver/Src/stm32f3xx_ll_exti.c **** #endif
 275:Drivers/STM32F3xx_HAL_Driver/Src/stm32f3xx_ll_exti.c ****   EXTI_InitStruct->LineCommand    = DISABLE;
 804              		.loc 1 275 3 is_stmt 1 view .LVU228
 805              		.loc 1 275 35 is_stmt 0 view .LVU229
 806 0006 0372     		strb	r3, [r0, #8]
 276:Drivers/STM32F3xx_HAL_Driver/Src/stm32f3xx_ll_exti.c ****   EXTI_InitStruct->Mode           = LL_EXTI_MODE_IT;
 807              		.loc 1 276 3 is_stmt 1 view .LVU230
 808              		.loc 1 276 35 is_stmt 0 view .LVU231
 809 0008 4372     		strb	r3, [r0, #9]
 277:Drivers/STM32F3xx_HAL_Driver/Src/stm32f3xx_ll_exti.c ****   EXTI_InitStruct->Trigger        = LL_EXTI_TRIGGER_FALLING;
 810              		.loc 1 277 3 is_stmt 1 view .LVU232
 811              		.loc 1 277 35 is_stmt 0 view .LVU233
 812 000a 0223     		movs	r3, #2
 813 000c 8372     		strb	r3, [r0, #10]
 278:Drivers/STM32F3xx_HAL_Driver/Src/stm32f3xx_ll_exti.c **** }
 814              		.loc 1 278 1 view .LVU234
 815 000e 7047     		bx	lr
 816              		.cfi_endproc
 817              	.LFE157:
 819              		.text
 820              	.Letext0:
 821              		.file 3 "/usr/arm-none-eabi/include/machine/_default_types.h"
 822              		.file 4 "/usr/arm-none-eabi/include/sys/_stdint.h"
 823              		.file 5 "Drivers/CMSIS/Device/ST/STM32F3xx/Include/stm32f302x8.h"
 824              		.file 6 "Drivers/CMSIS/Device/ST/STM32F3xx/Include/stm32f3xx.h"
ARM GAS  /tmp/ccc7EsBH.s 			page 41


DEFINED SYMBOLS
                            *ABS*:00000000 stm32f3xx_ll_exti.c
     /tmp/ccc7EsBH.s:21     .text.LL_EXTI_DeInit:00000000 $t
     /tmp/ccc7EsBH.s:27     .text.LL_EXTI_DeInit:00000000 LL_EXTI_DeInit
     /tmp/ccc7EsBH.s:70     .text.LL_EXTI_DeInit:0000002c $d
     /tmp/ccc7EsBH.s:76     .text.LL_EXTI_Init:00000000 $t
     /tmp/ccc7EsBH.s:82     .text.LL_EXTI_Init:00000000 LL_EXTI_Init
     /tmp/ccc7EsBH.s:778    .text.LL_EXTI_Init:00000194 $d
     /tmp/ccc7EsBH.s:783    .text.LL_EXTI_StructInit:00000000 $t
     /tmp/ccc7EsBH.s:789    .text.LL_EXTI_StructInit:00000000 LL_EXTI_StructInit

NO UNDEFINED SYMBOLS
